
lms_ctr_app.elf:     file format elf32-littlenios2
lms_ctr_app.elf
architecture: nios2:r1, flags 0x00000112:
EXEC_P, HAS_SYMS, D_PAGED
start address 0x0000822c

Program Header:
    LOAD off    0x00001000 vaddr 0x00008000 paddr 0x00008000 align 2**12
         filesz 0x00000020 memsz 0x00000020 flags r-x
    LOAD off    0x00001020 vaddr 0x00008020 paddr 0x00008020 align 2**12
         filesz 0x00004048 memsz 0x00004048 flags r-x
    LOAD off    0x00005068 vaddr 0x0000c068 paddr 0x0000c72c align 2**12
         filesz 0x000006c4 memsz 0x000006c4 flags rw-
    LOAD off    0x00005df0 vaddr 0x0000cdf0 paddr 0x0000cdf0 align 2**12
         filesz 0x00000000 memsz 0x000002cc flags rw-

Sections:
Idx Name          Size      VMA       LMA       File off  Algn
  0 .entry        00000020  00008000  00008000  00001000  2**5
                  CONTENTS, ALLOC, LOAD, READONLY, CODE
  1 .exceptions   0000020c  00008020  00008020  00001020  2**2
                  CONTENTS, ALLOC, LOAD, READONLY, CODE
  2 .text         00003e20  0000822c  0000822c  0000122c  2**2
                  CONTENTS, ALLOC, LOAD, READONLY, CODE
  3 .rodata       0000001c  0000c04c  0000c04c  0000504c  2**2
                  CONTENTS, ALLOC, LOAD, READONLY, DATA
  4 .rwdata       000006c4  0000c068  0000c72c  00005068  2**2
                  CONTENTS, ALLOC, LOAD, DATA, SMALL_DATA
  5 .bss          000002cc  0000cdf0  0000cdf0  00005df0  2**2
                  ALLOC, SMALL_DATA
  6 .oc_mem       00000000  0000d0bc  0000d0bc  0000572c  2**0
                  CONTENTS
  7 .comment      00000023  00000000  00000000  0000572c  2**0
                  CONTENTS, READONLY
  8 .debug_aranges 00000558  00000000  00000000  00005750  2**3
                  CONTENTS, READONLY, DEBUGGING
  9 .debug_info   000066f1  00000000  00000000  00005ca8  2**0
                  CONTENTS, READONLY, DEBUGGING
 10 .debug_abbrev 00002409  00000000  00000000  0000c399  2**0
                  CONTENTS, READONLY, DEBUGGING
 11 .debug_line   0000296b  00000000  00000000  0000e7a2  2**0
                  CONTENTS, READONLY, DEBUGGING
 12 .debug_frame  00000bb0  00000000  00000000  00011110  2**2
                  CONTENTS, READONLY, DEBUGGING
 13 .debug_str    00001f85  00000000  00000000  00011cc0  2**0
                  CONTENTS, READONLY, DEBUGGING
 14 .debug_loc    00000aad  00000000  00000000  00013c45  2**0
                  CONTENTS, READONLY, DEBUGGING
 15 .debug_alt_sim_info 00000040  00000000  00000000  000146f4  2**2
                  CONTENTS, READONLY, DEBUGGING
 16 .debug_ranges 00000130  00000000  00000000  00014738  2**3
                  CONTENTS, READONLY, DEBUGGING
 17 .thread_model 00000003  00000000  00000000  000165c8  2**0
                  CONTENTS, READONLY
 18 .cpu          00000009  00000000  00000000  000165cb  2**0
                  CONTENTS, READONLY
 19 .qsys         00000001  00000000  00000000  000165d4  2**0
                  CONTENTS, READONLY
 20 .simulation_enabled 00000001  00000000  00000000  000165d5  2**0
                  CONTENTS, READONLY
 21 .sysid_hash   00000004  00000000  00000000  000165d6  2**0
                  CONTENTS, READONLY
 22 .sysid_base   00000004  00000000  00000000  000165da  2**0
                  CONTENTS, READONLY
 23 .sysid_time   00000004  00000000  00000000  000165de  2**0
                  CONTENTS, READONLY
 24 .stderr_dev   00000004  00000000  00000000  000165e2  2**0
                  CONTENTS, READONLY
 25 .stdin_dev    00000004  00000000  00000000  000165e6  2**0
                  CONTENTS, READONLY
 26 .stdout_dev   00000004  00000000  00000000  000165ea  2**0
                  CONTENTS, READONLY
 27 .sopc_system_name 00000007  00000000  00000000  000165ee  2**0
                  CONTENTS, READONLY
 28 .sopcinfo     00072d0a  00000000  00000000  000165f5  2**0
                  CONTENTS, READONLY
SYMBOL TABLE:
00008000 l    d  .entry	00000000 .entry
00008020 l    d  .exceptions	00000000 .exceptions
0000822c l    d  .text	00000000 .text
0000c04c l    d  .rodata	00000000 .rodata
0000c068 l    d  .rwdata	00000000 .rwdata
0000cdf0 l    d  .bss	00000000 .bss
0000d0bc l    d  .oc_mem	00000000 .oc_mem
00000000 l    d  .comment	00000000 .comment
00000000 l    d  .debug_aranges	00000000 .debug_aranges
00000000 l    d  .debug_info	00000000 .debug_info
00000000 l    d  .debug_abbrev	00000000 .debug_abbrev
00000000 l    d  .debug_line	00000000 .debug_line
00000000 l    d  .debug_frame	00000000 .debug_frame
00000000 l    d  .debug_str	00000000 .debug_str
00000000 l    d  .debug_loc	00000000 .debug_loc
00000000 l    d  .debug_alt_sim_info	00000000 .debug_alt_sim_info
00000000 l    d  .debug_ranges	00000000 .debug_ranges
00000000 l    df *ABS*	00000000 ../lms_ctr_bsp//obj/HAL/src/crt0.o
00008264 l       .text	00000000 alt_after_alt_main
00000000 l    df *ABS*	00000000 alt_irq_handler.c
00000000 l    df *ABS*	00000000 alt_instruction_exception_entry.c
00000000 l    df *ABS*	00000000 i2c_opencores.c
00000000 l    df *ABS*	00000000 main.c
00000000 l    df *ABS*	00000000 spi_flash_lib.c
00000000 l    df *ABS*	00000000 lib2-divmod.c
0000a3ac l     F .text	0000006c udivmodsi4
00000000 l    df *ABS*	00000000 lib2-mul.c
00000000 l    df *ABS*	00000000 memcpy.c
00000000 l    df *ABS*	00000000 memset.c
00000000 l    df *ABS*	00000000 alt_load.c
0000a75c l     F .text	00000064 alt_load_section
00000000 l    df *ABS*	00000000 alt_main.c
00000000 l    df *ABS*	00000000 alt_usleep.c
00000000 l    df *ABS*	00000000 alt_sys_init.c
0000a8cc l     F .text	00000038 alt_dev_reg
0000c068 l     O .rwdata	000000c4 uart
00000000 l    df *ABS*	00000000 altera_avalon_spi.c
00000000 l    df *ABS*	00000000 altera_avalon_uart_fd.c
00000000 l    df *ABS*	00000000 altera_avalon_uart_init.c
0000ad50 l     F .text	00000098 altera_avalon_uart_irq
0000ade8 l     F .text	000000e0 altera_avalon_uart_rxirq
0000aec8 l     F .text	00000144 altera_avalon_uart_txirq
00000000 l    df *ABS*	00000000 altera_avalon_uart_read.c
0000b060 l     F .text	00000050 alt_get_errno
00000000 l    df *ABS*	00000000 altera_avalon_uart_write.c
0000b28c l     F .text	00000050 alt_get_errno
00000000 l    df *ABS*	00000000 alt_busy_sleep.c
00000000 l    df *ABS*	00000000 alt_close.c
0000b5e0 l     F .text	00000050 alt_get_errno
00000000 l    df *ABS*	00000000 alt_dcache_flush_all.c
00000000 l    df *ABS*	00000000 alt_dev.c
0000b724 l     F .text	0000002c alt_dev_null_write
00000000 l    df *ABS*	00000000 alt_dev_llist_insert.c
0000b750 l     F .text	00000050 alt_get_errno
00000000 l    df *ABS*	00000000 alt_do_ctors.c
00000000 l    df *ABS*	00000000 alt_do_dtors.c
00000000 l    df *ABS*	00000000 alt_errno.c
00000000 l    df *ABS*	00000000 alt_icache_flush_all.c
00000000 l    df *ABS*	00000000 alt_iic.c
00000000 l    df *ABS*	00000000 alt_iic_isr_register.c
00000000 l    df *ABS*	00000000 alt_irq_vars.c
00000000 l    df *ABS*	00000000 alt_release_fd.c
00000000 l    df *ABS*	00000000 altera_nios2_gen2_irq.c
00000000 l    df *ABS*	00000000 atexit.c
00000000 l    df *ABS*	00000000 exit.c
00000000 l    df *ABS*	00000000 impure.c
0000c2d4 l     O .rwdata	00000424 impure_data
00000000 l    df *ABS*	00000000 int_errno.c
00000000 l    df *ABS*	00000000 __atexit.c
00000000 l    df *ABS*	00000000 __call_atexit.c
00000000 l    df *ABS*	00000000 alt_exit.c
0000ce34 g     O .bss	00000004 alt_instruction_exception_handler
0000a840 g     F .text	0000005c alt_main
0000cfbc g     O .bss	00000100 alt_irq
00009f80 g     F .text	000001e4 FlashSpiTransfer
0000c72c g       *ABS*	00000000 __flash_rwdata_start
0000c704 g     O .rwdata	00000004 Board_Config_FPGA
0000ce00 g     O .bss	00000001 block
0000ce3c g     O .bss	00000040 glEp0Buffer_Tx
0000c702 g     O .rwdata	00000002 converted_val
0000ce01 g     O .bss	00000001 data_cnt
0000ce02 g     O .bss	00000002 dac_data
0000bc68 g     F .text	00000020 altera_nios2_gen2_irq_init
00000000  w      *UND*	00000000 __errno
00008000 g     F .entry	0000000c __reset
00008020 g       *ABS*	00000000 __flash_exceptions_start
0000ce38 g     O .bss	00000004 errno
0000ce28 g     O .bss	00000004 alt_argv
000146f8 g       *ABS*	00000000 _gp
0000a89c g     F .text	00000030 usleep
0000ce04 g     O .bss	00000001 MCU_retries
0000c154 g     O .rwdata	00000180 alt_fd_list
0000ce05 g     O .bss	00000004 sc_brdg_data
0000a500 g     F .text	00000138 memcpy
0000c04c g       *ABS*	00000000 __DTOR_END__
0000bc88 g     F .text	0000009c alt_exception_cause_generated_bad_addr
0000831c g     F .text	0000009c I2C_start
00000000  w      *UND*	00000000 malloc
0000a4c8 g     F .text	00000008 .hidden __udivsi3
0000a164 g     F .text	000000d8 CyFxSpiWaitForStatus
0000c718 g     O .rwdata	00000004 alt_max_fd
0000c724 g     O .rwdata	00000004 _global_impure_ptr
000085bc g     F .text	00000034 set_led
0000d0bc g       *ABS*	00000000 __bss_end
0000baf8 g     F .text	000000f0 alt_iic_isr_register
0000aca8 g     F .text	000000a8 altera_avalon_uart_init
0000ce0c g     O .bss	00000004 fpga_data
0000baac g     F .text	0000004c alt_ic_irq_enabled
0000ce30 g     O .bss	00000004 alt_irq_active
000080fc g     F .exceptions	000000d0 alt_irq_handler
0000c12c g     O .rwdata	00000028 alt_dev_null
0000b708 g     F .text	0000001c alt_dcache_flush_all
00008000 g       *ABS*	00000000 __alt_mem_oc_mem
0000c72c g       *ABS*	00000000 __ram_rwdata_end
0000c710 g     O .rwdata	00000008 alt_dev_list
0000cdf4 g     O .bss	00000004 flash_page_data_cnt
0000c068 g       *ABS*	00000000 __ram_rodata_end
0000a4d0 g     F .text	00000008 .hidden __umodsi3
0000d0bc g       *ABS*	00000000 end
0000ce10 g     O .bss	00000004 last_portion
0000b2dc g     F .text	000001ac altera_avalon_uart_write
000081cc g     F .exceptions	00000060 alt_instruction_exception_entry
0000c04c g       *ABS*	00000000 __CTOR_LIST__
00010000 g       *ABS*	00000000 __alt_stack_pointer
0000ce14 g     O .bss	00000004 current_portion
0000abf8 g     F .text	00000060 altera_avalon_uart_write_fd
0000ac58 g     F .text	00000050 altera_avalon_uart_close_fd
00009f58 g     F .text	00000028 FlashSpiFastRead
0000be84 g     F .text	00000194 __call_exitprocs
0000ce18 g     O .bss	00000001 test
0000822c g     F .text	0000003c _start
0000a994 g     F .text	00000204 alt_avalon_spi_command
0000a938 g     F .text	0000005c alt_sys_init
0000bd70 g     F .text	00000114 __register_exitproc
0000a4d8 g     F .text	00000028 .hidden __mulsi3
0000c068 g       *ABS*	00000000 __ram_rwdata_start
0000c04c g       *ABS*	00000000 __ram_rodata_start
0000b488 g     F .text	00000158 alt_busy_sleep
0000d0bc g       *ABS*	00000000 __alt_stack_base
0000b7a0 g     F .text	000000a4 alt_dev_llist_insert
0000cdf0 g       *ABS*	00000000 __bss_start
0000a638 g     F .text	00000124 memset
0000871c g     F .text	00001794 main
0000ce2c g     O .bss	00000004 alt_envp
00008554 g     F .text	00000068 getFifoData
0000ce20 g     O .bss	00000001 spiFastRead
000085f0 g     F .text	0000012c Configure_LM75
0000c71c g     O .rwdata	00000004 alt_errno
0000a418 g     F .text	00000054 .hidden __divsi3
0000c04c g       *ABS*	00000000 __CTOR_END__
000083b8 g     F .text	0000007c I2C_read
0000c04c g       *ABS*	00000000 __flash_rodata_start
0000c04c g       *ABS*	00000000 __DTOR_LIST__
0000a904 g     F .text	00000034 alt_irq_init
0000bbe8 g     F .text	00000080 alt_release_fd
0000bd24 g     F .text	00000014 atexit
0000c6fc g     O .rwdata	00000004 LMS_Ctrl_Packet_Rx
0000c728 g     O .rwdata	00000004 _impure_ptr
0000ce24 g     O .bss	00000004 alt_argc
0000b8a0 g     F .text	0000005c _do_dtors
00008020 g       .exceptions	00000000 alt_irq_entry
0000c708 g     O .rwdata	00000008 alt_fs_list
0000c700 g     O .rwdata	00000001 dac_val
0000cdf0 g     O .bss	00000004 flash_page
00008268 g     F .text	000000b4 I2C_init
00008020 g       *ABS*	00000000 __ram_exceptions_start
0000b918 g     F .text	00000050 alt_ic_isr_register
0000c72c g       *ABS*	00000000 _edata
0000ab98 g     F .text	00000060 altera_avalon_uart_read_fd
0000d0bc g       *ABS*	00000000 _end
0000822c g       *ABS*	00000000 __ram_exceptions_end
0000cdf8 g     O .bss	00000004 flash_data_cnt_free
0000ba08 g     F .text	000000a4 alt_ic_irq_disable
0000ce19 g     O .bss	00000001 cmd_errors
0000bd38 g     F .text	00000038 exit
0000a46c g     F .text	0000005c .hidden __modsi3
00009eb0 g     F .text	000000a8 ReverseBitOrder
00010000 g       *ABS*	00000000 __alt_data_end
00008020 g     F .exceptions	00000000 alt_exception
0000ce7c g     O .bss	00000100 flash_page_data
0000b00c g     F .text	00000054 altera_avalon_uart_close
0000c018 g     F .text	00000034 _exit
000084e0 g     F .text	00000074 Check_many_blocks
0000cdfc g     O .bss	00000004 flash_data_counter_to_copy
0000c6f8 g     O .rwdata	00000004 LMS_Ctrl_Packet_Tx
0000b8fc g     F .text	0000001c alt_icache_flush_all
0000c720 g     O .rwdata	00000004 alt_priority_mask
0000b968 g     F .text	000000a0 alt_ic_irq_enable
0000b0b0 g     F .text	000001dc altera_avalon_uart_read
0000ce1c g     O .bss	00000004 fpga_byte
0000b844 g     F .text	0000005c _do_ctors
0000b630 g     F .text	000000d8 close
0000a23c g     F .text	00000170 FlashSpiEraseSector
0000a7c0 g     F .text	00000080 alt_load
00008434 g     F .text	000000ac I2C_write
00000000  w      *UND*	00000000 free
0000cf7c g     O .bss	00000040 glEp0Buffer_Rx



Disassembly of section .entry:

00008000 <__reset>:
    8000:	00400034 	movhi	at,0
    8004:	08608b14 	ori	at,at,33324
    8008:	0800683a 	jmp	at
	...

Disassembly of section .exceptions:

00008020 <alt_exception>:
    8020:	deffed04 	addi	sp,sp,-76
    8024:	dfc00015 	stw	ra,0(sp)
    8028:	d8400215 	stw	at,8(sp)
    802c:	d8800315 	stw	r2,12(sp)
    8030:	d8c00415 	stw	r3,16(sp)
    8034:	d9000515 	stw	r4,20(sp)
    8038:	d9400615 	stw	r5,24(sp)
    803c:	d9800715 	stw	r6,28(sp)
    8040:	d9c00815 	stw	r7,32(sp)
    8044:	000b307a 	rdctl	r5,estatus
    8048:	da000915 	stw	r8,36(sp)
    804c:	da400a15 	stw	r9,40(sp)
    8050:	da800b15 	stw	r10,44(sp)
    8054:	dac00c15 	stw	r11,48(sp)
    8058:	db000d15 	stw	r12,52(sp)
    805c:	db400e15 	stw	r13,56(sp)
    8060:	db800f15 	stw	r14,60(sp)
    8064:	dbc01015 	stw	r15,64(sp)
    8068:	d9401115 	stw	r5,68(sp)
    806c:	ebffff04 	addi	r15,ea,-4
    8070:	dbc01215 	stw	r15,72(sp)
    8074:	0009313a 	rdctl	r4,ipending
    8078:	2880004c 	andi	r2,r5,1
    807c:	10000326 	beq	r2,zero,808c <alt_exception+0x6c>
    8080:	20000226 	beq	r4,zero,808c <alt_exception+0x6c>
    8084:	00080fc0 	call	80fc <alt_irq_handler>
    8088:	00000706 	br	80a8 <alt_exception+0x88>
    808c:	df401215 	stw	ea,72(sp)
    8090:	e8bfff17 	ldw	r2,-4(ea)
    8094:	e93fff04 	addi	r4,ea,-4
    8098:	00081cc0 	call	81cc <alt_instruction_exception_entry>
    809c:	1000021e 	bne	r2,zero,80a8 <alt_exception+0x88>
    80a0:	ebffff04 	addi	r15,ea,-4
    80a4:	dbc01215 	stw	r15,72(sp)
    80a8:	d9401117 	ldw	r5,68(sp)
    80ac:	df401217 	ldw	ea,72(sp)
    80b0:	dfc00017 	ldw	ra,0(sp)
    80b4:	2801707a 	wrctl	estatus,r5
    80b8:	d8400217 	ldw	at,8(sp)
    80bc:	d8800317 	ldw	r2,12(sp)
    80c0:	d8c00417 	ldw	r3,16(sp)
    80c4:	d9000517 	ldw	r4,20(sp)
    80c8:	d9400617 	ldw	r5,24(sp)
    80cc:	d9800717 	ldw	r6,28(sp)
    80d0:	d9c00817 	ldw	r7,32(sp)
    80d4:	da000917 	ldw	r8,36(sp)
    80d8:	da400a17 	ldw	r9,40(sp)
    80dc:	da800b17 	ldw	r10,44(sp)
    80e0:	dac00c17 	ldw	r11,48(sp)
    80e4:	db000d17 	ldw	r12,52(sp)
    80e8:	db400e17 	ldw	r13,56(sp)
    80ec:	db800f17 	ldw	r14,60(sp)
    80f0:	dbc01017 	ldw	r15,64(sp)
    80f4:	dec01304 	addi	sp,sp,76
    80f8:	ef80083a 	eret

000080fc <alt_irq_handler>:
    80fc:	defff904 	addi	sp,sp,-28
    8100:	dfc00615 	stw	ra,24(sp)
    8104:	df000515 	stw	fp,20(sp)
    8108:	df000504 	addi	fp,sp,20
    810c:	0001883a 	nop
    8110:	0005313a 	rdctl	r2,ipending
    8114:	e0bffe15 	stw	r2,-8(fp)
    8118:	e0bffe17 	ldw	r2,-8(fp)
    811c:	e0bffb15 	stw	r2,-20(fp)
    8120:	e03ffd15 	stw	zero,-12(fp)
    8124:	00800044 	movi	r2,1
    8128:	e0bffc15 	stw	r2,-16(fp)
    812c:	e0fffb17 	ldw	r3,-20(fp)
    8130:	e0bffc17 	ldw	r2,-16(fp)
    8134:	1884703a 	and	r2,r3,r2
    8138:	10001426 	beq	r2,zero,818c <alt_irq_handler+0x90>
    813c:	00800074 	movhi	r2,1
    8140:	10b3ef04 	addi	r2,r2,-12356
    8144:	e0fffd17 	ldw	r3,-12(fp)
    8148:	180690fa 	slli	r3,r3,3
    814c:	10c5883a 	add	r2,r2,r3
    8150:	10c00017 	ldw	r3,0(r2)
    8154:	00800074 	movhi	r2,1
    8158:	10b3ef04 	addi	r2,r2,-12356
    815c:	e13ffd17 	ldw	r4,-12(fp)
    8160:	200890fa 	slli	r4,r4,3
    8164:	21000104 	addi	r4,r4,4
    8168:	1105883a 	add	r2,r2,r4
    816c:	10800017 	ldw	r2,0(r2)
    8170:	1009883a 	mov	r4,r2
    8174:	183ee83a 	callr	r3
    8178:	0001883a 	nop
    817c:	0005313a 	rdctl	r2,ipending
    8180:	e0bfff15 	stw	r2,-4(fp)
    8184:	e0bfff17 	ldw	r2,-4(fp)
    8188:	00000706 	br	81a8 <alt_irq_handler+0xac>
    818c:	e0bffc17 	ldw	r2,-16(fp)
    8190:	1085883a 	add	r2,r2,r2
    8194:	e0bffc15 	stw	r2,-16(fp)
    8198:	e0bffd17 	ldw	r2,-12(fp)
    819c:	10800044 	addi	r2,r2,1
    81a0:	e0bffd15 	stw	r2,-12(fp)
    81a4:	003fe106 	br	812c <_gp+0xffff3a34>
    81a8:	e0bffb15 	stw	r2,-20(fp)
    81ac:	e0bffb17 	ldw	r2,-20(fp)
    81b0:	103fdb1e 	bne	r2,zero,8120 <_gp+0xffff3a28>
    81b4:	0001883a 	nop
    81b8:	e037883a 	mov	sp,fp
    81bc:	dfc00117 	ldw	ra,4(sp)
    81c0:	df000017 	ldw	fp,0(sp)
    81c4:	dec00204 	addi	sp,sp,8
    81c8:	f800283a 	ret

000081cc <alt_instruction_exception_entry>:
    81cc:	defffb04 	addi	sp,sp,-20
    81d0:	dfc00415 	stw	ra,16(sp)
    81d4:	df000315 	stw	fp,12(sp)
    81d8:	df000304 	addi	fp,sp,12
    81dc:	e13fff15 	stw	r4,-4(fp)
    81e0:	00bfffc4 	movi	r2,-1
    81e4:	e0bffd15 	stw	r2,-12(fp)
    81e8:	e03ffe15 	stw	zero,-8(fp)
    81ec:	d0a1cf17 	ldw	r2,-30916(gp)
    81f0:	10000726 	beq	r2,zero,8210 <alt_instruction_exception_entry+0x44>
    81f4:	d0a1cf17 	ldw	r2,-30916(gp)
    81f8:	e0fffd17 	ldw	r3,-12(fp)
    81fc:	1809883a 	mov	r4,r3
    8200:	e17fff17 	ldw	r5,-4(fp)
    8204:	e1bffe17 	ldw	r6,-8(fp)
    8208:	103ee83a 	callr	r2
    820c:	00000206 	br	8218 <alt_instruction_exception_entry+0x4c>
    8210:	003da03a 	break	0
    8214:	0005883a 	mov	r2,zero
    8218:	e037883a 	mov	sp,fp
    821c:	dfc00117 	ldw	ra,4(sp)
    8220:	df000017 	ldw	fp,0(sp)
    8224:	dec00204 	addi	sp,sp,8
    8228:	f800283a 	ret

Disassembly of section .text:

0000822c <_start>:
    822c:	06c00074 	movhi	sp,1
    8230:	dec00014 	ori	sp,sp,0
    8234:	06800074 	movhi	gp,1
    8238:	d691be14 	ori	gp,gp,18168
    823c:	00800034 	movhi	r2,0
    8240:	10b37c14 	ori	r2,r2,52720
    8244:	00c00034 	movhi	r3,0
    8248:	18f42f14 	ori	r3,r3,53436
    824c:	10c00326 	beq	r2,r3,825c <_start+0x30>
    8250:	10000015 	stw	zero,0(r2)
    8254:	10800104 	addi	r2,r2,4
    8258:	10fffd36 	bltu	r2,r3,8250 <_gp+0xffff3b58>
    825c:	000a7c00 	call	a7c0 <alt_load>
    8260:	000a8400 	call	a840 <alt_main>

00008264 <alt_after_alt_main>:
    8264:	003fff06 	br	8264 <_gp+0xffff3b6c>

00008268 <I2C_init>:
    8268:	defffa04 	addi	sp,sp,-24
    826c:	dfc00515 	stw	ra,20(sp)
    8270:	df000415 	stw	fp,16(sp)
    8274:	df000404 	addi	fp,sp,16
    8278:	e13ffd15 	stw	r4,-12(fp)
    827c:	e17ffe15 	stw	r5,-8(fp)
    8280:	e1bfff15 	stw	r6,-4(fp)
    8284:	e13fff17 	ldw	r4,-4(fp)
    8288:	01400144 	movi	r5,5
    828c:	000a4d80 	call	a4d8 <__mulsi3>
    8290:	e13ffe17 	ldw	r4,-8(fp)
    8294:	100b883a 	mov	r5,r2
    8298:	000a4c80 	call	a4c8 <__udivsi3>
    829c:	10bfffc4 	addi	r2,r2,-1
    82a0:	e0bffc15 	stw	r2,-16(fp)
    82a4:	e0bffd17 	ldw	r2,-12(fp)
    82a8:	10800204 	addi	r2,r2,8
    82ac:	0007883a 	mov	r3,zero
    82b0:	10c00035 	stwio	r3,0(r2)
    82b4:	e0bffd17 	ldw	r2,-12(fp)
    82b8:	10800404 	addi	r2,r2,16
    82bc:	1007883a 	mov	r3,r2
    82c0:	00800044 	movi	r2,1
    82c4:	18800035 	stwio	r2,0(r3)
    82c8:	e0bffd17 	ldw	r2,-12(fp)
    82cc:	e0fffc17 	ldw	r3,-16(fp)
    82d0:	18c03fcc 	andi	r3,r3,255
    82d4:	10c00035 	stwio	r3,0(r2)
    82d8:	e0bffd17 	ldw	r2,-12(fp)
    82dc:	10800104 	addi	r2,r2,4
    82e0:	1007883a 	mov	r3,r2
    82e4:	e0bffc17 	ldw	r2,-16(fp)
    82e8:	1004d23a 	srli	r2,r2,8
    82ec:	10803fcc 	andi	r2,r2,255
    82f0:	18800035 	stwio	r2,0(r3)
    82f4:	e0bffd17 	ldw	r2,-12(fp)
    82f8:	10800204 	addi	r2,r2,8
    82fc:	1007883a 	mov	r3,r2
    8300:	00802004 	movi	r2,128
    8304:	18800035 	stwio	r2,0(r3)
    8308:	e037883a 	mov	sp,fp
    830c:	dfc00117 	ldw	ra,4(sp)
    8310:	df000017 	ldw	fp,0(sp)
    8314:	dec00204 	addi	sp,sp,8
    8318:	f800283a 	ret

0000831c <I2C_start>:
    831c:	defffc04 	addi	sp,sp,-16
    8320:	df000315 	stw	fp,12(sp)
    8324:	df000304 	addi	fp,sp,12
    8328:	e13ffd15 	stw	r4,-12(fp)
    832c:	e17ffe15 	stw	r5,-8(fp)
    8330:	e1bfff15 	stw	r6,-4(fp)
    8334:	e0bffd17 	ldw	r2,-12(fp)
    8338:	10800304 	addi	r2,r2,12
    833c:	1007883a 	mov	r3,r2
    8340:	e0bffe17 	ldw	r2,-8(fp)
    8344:	1085883a 	add	r2,r2,r2
    8348:	1009883a 	mov	r4,r2
    834c:	e0bfff17 	ldw	r2,-4(fp)
    8350:	1080004c 	andi	r2,r2,1
    8354:	2085883a 	add	r2,r4,r2
    8358:	18800035 	stwio	r2,0(r3)
    835c:	e0bffd17 	ldw	r2,-12(fp)
    8360:	10800404 	addi	r2,r2,16
    8364:	1007883a 	mov	r3,r2
    8368:	00802404 	movi	r2,144
    836c:	18800035 	stwio	r2,0(r3)
    8370:	0001883a 	nop
    8374:	e0bffd17 	ldw	r2,-12(fp)
    8378:	10800404 	addi	r2,r2,16
    837c:	10800037 	ldwio	r2,0(r2)
    8380:	1080008c 	andi	r2,r2,2
    8384:	103ffb1e 	bne	r2,zero,8374 <_gp+0xffff3c7c>
    8388:	e0bffd17 	ldw	r2,-12(fp)
    838c:	10800404 	addi	r2,r2,16
    8390:	10800037 	ldwio	r2,0(r2)
    8394:	1080200c 	andi	r2,r2,128
    8398:	10000226 	beq	r2,zero,83a4 <I2C_start+0x88>
    839c:	00800044 	movi	r2,1
    83a0:	00000106 	br	83a8 <I2C_start+0x8c>
    83a4:	0005883a 	mov	r2,zero
    83a8:	e037883a 	mov	sp,fp
    83ac:	df000017 	ldw	fp,0(sp)
    83b0:	dec00104 	addi	sp,sp,4
    83b4:	f800283a 	ret

000083b8 <I2C_read>:
    83b8:	defffd04 	addi	sp,sp,-12
    83bc:	df000215 	stw	fp,8(sp)
    83c0:	df000204 	addi	fp,sp,8
    83c4:	e13ffe15 	stw	r4,-8(fp)
    83c8:	e17fff15 	stw	r5,-4(fp)
    83cc:	e0bfff17 	ldw	r2,-4(fp)
    83d0:	10000626 	beq	r2,zero,83ec <I2C_read+0x34>
    83d4:	e0bffe17 	ldw	r2,-8(fp)
    83d8:	10800404 	addi	r2,r2,16
    83dc:	1007883a 	mov	r3,r2
    83e0:	00801a04 	movi	r2,104
    83e4:	18800035 	stwio	r2,0(r3)
    83e8:	00000506 	br	8400 <I2C_read+0x48>
    83ec:	e0bffe17 	ldw	r2,-8(fp)
    83f0:	10800404 	addi	r2,r2,16
    83f4:	1007883a 	mov	r3,r2
    83f8:	00800804 	movi	r2,32
    83fc:	18800035 	stwio	r2,0(r3)
    8400:	0001883a 	nop
    8404:	e0bffe17 	ldw	r2,-8(fp)
    8408:	10800404 	addi	r2,r2,16
    840c:	10800037 	ldwio	r2,0(r2)
    8410:	1080008c 	andi	r2,r2,2
    8414:	103ffb1e 	bne	r2,zero,8404 <_gp+0xffff3d0c>
    8418:	e0bffe17 	ldw	r2,-8(fp)
    841c:	10800304 	addi	r2,r2,12
    8420:	10800037 	ldwio	r2,0(r2)
    8424:	e037883a 	mov	sp,fp
    8428:	df000017 	ldw	fp,0(sp)
    842c:	dec00104 	addi	sp,sp,4
    8430:	f800283a 	ret

00008434 <I2C_write>:
    8434:	defffc04 	addi	sp,sp,-16
    8438:	df000315 	stw	fp,12(sp)
    843c:	df000304 	addi	fp,sp,12
    8440:	e13ffd15 	stw	r4,-12(fp)
    8444:	2805883a 	mov	r2,r5
    8448:	e1bfff15 	stw	r6,-4(fp)
    844c:	e0bffe05 	stb	r2,-8(fp)
    8450:	e0bffd17 	ldw	r2,-12(fp)
    8454:	10800304 	addi	r2,r2,12
    8458:	1007883a 	mov	r3,r2
    845c:	e0bffe03 	ldbu	r2,-8(fp)
    8460:	18800035 	stwio	r2,0(r3)
    8464:	e0bfff17 	ldw	r2,-4(fp)
    8468:	10000626 	beq	r2,zero,8484 <I2C_write+0x50>
    846c:	e0bffd17 	ldw	r2,-12(fp)
    8470:	10800404 	addi	r2,r2,16
    8474:	1007883a 	mov	r3,r2
    8478:	00801404 	movi	r2,80
    847c:	18800035 	stwio	r2,0(r3)
    8480:	00000506 	br	8498 <I2C_write+0x64>
    8484:	e0bffd17 	ldw	r2,-12(fp)
    8488:	10800404 	addi	r2,r2,16
    848c:	1007883a 	mov	r3,r2
    8490:	00800404 	movi	r2,16
    8494:	18800035 	stwio	r2,0(r3)
    8498:	0001883a 	nop
    849c:	e0bffd17 	ldw	r2,-12(fp)
    84a0:	10800404 	addi	r2,r2,16
    84a4:	10800037 	ldwio	r2,0(r2)
    84a8:	1080008c 	andi	r2,r2,2
    84ac:	103ffb1e 	bne	r2,zero,849c <_gp+0xffff3da4>
    84b0:	e0bffd17 	ldw	r2,-12(fp)
    84b4:	10800404 	addi	r2,r2,16
    84b8:	10800037 	ldwio	r2,0(r2)
    84bc:	1080200c 	andi	r2,r2,128
    84c0:	10000226 	beq	r2,zero,84cc <I2C_write+0x98>
    84c4:	00800044 	movi	r2,1
    84c8:	00000106 	br	84d0 <I2C_write+0x9c>
    84cc:	0005883a 	mov	r2,zero
    84d0:	e037883a 	mov	sp,fp
    84d4:	df000017 	ldw	fp,0(sp)
    84d8:	dec00104 	addi	sp,sp,4
    84dc:	f800283a 	ret

000084e0 <Check_many_blocks>:
    84e0:	defffc04 	addi	sp,sp,-16
    84e4:	dfc00315 	stw	ra,12(sp)
    84e8:	df000215 	stw	fp,8(sp)
    84ec:	dc000115 	stw	r16,4(sp)
    84f0:	df000204 	addi	fp,sp,8
    84f4:	2005883a 	mov	r2,r4
    84f8:	e0bffe05 	stb	r2,-8(fp)
    84fc:	d0a00117 	ldw	r2,-32764(gp)
    8500:	14000083 	ldbu	r16,2(r2)
    8504:	e0bffe03 	ldbu	r2,-8(fp)
    8508:	01000e04 	movi	r4,56
    850c:	100b883a 	mov	r5,r2
    8510:	000a4c80 	call	a4c8 <__udivsi3>
    8514:	1007883a 	mov	r3,r2
    8518:	80803fcc 	andi	r2,r16,255
    851c:	18c03fcc 	andi	r3,r3,255
    8520:	1880052e 	bgeu	r3,r2,8538 <Check_many_blocks+0x58>
    8524:	d0a00017 	ldw	r2,-32768(gp)
    8528:	00c00104 	movi	r3,4
    852c:	10c00045 	stb	r3,1(r2)
    8530:	00800044 	movi	r2,1
    8534:	00000106 	br	853c <Check_many_blocks+0x5c>
    8538:	0005883a 	mov	r2,zero
    853c:	e6ffff04 	addi	sp,fp,-4
    8540:	dfc00217 	ldw	ra,8(sp)
    8544:	df000117 	ldw	fp,4(sp)
    8548:	dc000017 	ldw	r16,0(sp)
    854c:	dec00304 	addi	sp,sp,12
    8550:	f800283a 	ret

00008554 <getFifoData>:
    8554:	defffc04 	addi	sp,sp,-16
    8558:	df000315 	stw	fp,12(sp)
    855c:	df000304 	addi	fp,sp,12
    8560:	e13ffe15 	stw	r4,-8(fp)
    8564:	2805883a 	mov	r2,r5
    8568:	e0bfff05 	stb	r2,-4(fp)
    856c:	e03ffd05 	stb	zero,-12(fp)
    8570:	e03ffd05 	stb	zero,-12(fp)
    8574:	00000a06 	br	85a0 <getFifoData+0x4c>
    8578:	e0bffd03 	ldbu	r2,-12(fp)
    857c:	e0fffe17 	ldw	r3,-8(fp)
    8580:	1887883a 	add	r3,r3,r2
    8584:	00800074 	movhi	r2,1
    8588:	10843904 	addi	r2,r2,4324
    858c:	10800037 	ldwio	r2,0(r2)
    8590:	18800005 	stb	r2,0(r3)
    8594:	e0bffd03 	ldbu	r2,-12(fp)
    8598:	10800044 	addi	r2,r2,1
    859c:	e0bffd05 	stb	r2,-12(fp)
    85a0:	e0fffd03 	ldbu	r3,-12(fp)
    85a4:	e0bfff03 	ldbu	r2,-4(fp)
    85a8:	18bff336 	bltu	r3,r2,8578 <_gp+0xffff3e80>
    85ac:	e037883a 	mov	sp,fp
    85b0:	df000017 	ldw	fp,0(sp)
    85b4:	dec00104 	addi	sp,sp,4
    85b8:	f800283a 	ret

000085bc <set_led>:
    85bc:	defffe04 	addi	sp,sp,-8
    85c0:	df000115 	stw	fp,4(sp)
    85c4:	df000104 	addi	fp,sp,4
    85c8:	2005883a 	mov	r2,r4
    85cc:	e0bfff05 	stb	r2,-4(fp)
    85d0:	e0ffff03 	ldbu	r3,-4(fp)
    85d4:	00800074 	movhi	r2,1
    85d8:	10843004 	addi	r2,r2,4288
    85dc:	10c00035 	stwio	r3,0(r2)
    85e0:	e037883a 	mov	sp,fp
    85e4:	df000017 	ldw	fp,0(sp)
    85e8:	dec00104 	addi	sp,sp,4
    85ec:	f800283a 	ret

000085f0 <Configure_LM75>:
    85f0:	defffd04 	addi	sp,sp,-12
    85f4:	dfc00215 	stw	ra,8(sp)
    85f8:	df000115 	stw	fp,4(sp)
    85fc:	df000104 	addi	fp,sp,4
    8600:	01000074 	movhi	r4,1
    8604:	21042804 	addi	r4,r4,4256
    8608:	01401204 	movi	r5,72
    860c:	000d883a 	mov	r6,zero
    8610:	000831c0 	call	831c <I2C_start>
    8614:	e0bfff15 	stw	r2,-4(fp)
    8618:	01000074 	movhi	r4,1
    861c:	21042804 	addi	r4,r4,4256
    8620:	01400044 	movi	r5,1
    8624:	000d883a 	mov	r6,zero
    8628:	00084340 	call	8434 <I2C_write>
    862c:	e0bfff15 	stw	r2,-4(fp)
    8630:	01000074 	movhi	r4,1
    8634:	21042804 	addi	r4,r4,4256
    8638:	01400104 	movi	r5,4
    863c:	01800044 	movi	r6,1
    8640:	00084340 	call	8434 <I2C_write>
    8644:	e0bfff15 	stw	r2,-4(fp)
    8648:	01000074 	movhi	r4,1
    864c:	21042804 	addi	r4,r4,4256
    8650:	01401204 	movi	r5,72
    8654:	000d883a 	mov	r6,zero
    8658:	000831c0 	call	831c <I2C_start>
    865c:	e0bfff15 	stw	r2,-4(fp)
    8660:	01000074 	movhi	r4,1
    8664:	21042804 	addi	r4,r4,4256
    8668:	01400084 	movi	r5,2
    866c:	000d883a 	mov	r6,zero
    8670:	00084340 	call	8434 <I2C_write>
    8674:	e0bfff15 	stw	r2,-4(fp)
    8678:	01000074 	movhi	r4,1
    867c:	21042804 	addi	r4,r4,4256
    8680:	01400b44 	movi	r5,45
    8684:	000d883a 	mov	r6,zero
    8688:	00084340 	call	8434 <I2C_write>
    868c:	e0bfff15 	stw	r2,-4(fp)
    8690:	01000074 	movhi	r4,1
    8694:	21042804 	addi	r4,r4,4256
    8698:	000b883a 	mov	r5,zero
    869c:	01800044 	movi	r6,1
    86a0:	00084340 	call	8434 <I2C_write>
    86a4:	e0bfff15 	stw	r2,-4(fp)
    86a8:	01000074 	movhi	r4,1
    86ac:	21042804 	addi	r4,r4,4256
    86b0:	01401204 	movi	r5,72
    86b4:	000d883a 	mov	r6,zero
    86b8:	000831c0 	call	831c <I2C_start>
    86bc:	e0bfff15 	stw	r2,-4(fp)
    86c0:	01000074 	movhi	r4,1
    86c4:	21042804 	addi	r4,r4,4256
    86c8:	014000c4 	movi	r5,3
    86cc:	000d883a 	mov	r6,zero
    86d0:	00084340 	call	8434 <I2C_write>
    86d4:	e0bfff15 	stw	r2,-4(fp)
    86d8:	01000074 	movhi	r4,1
    86dc:	21042804 	addi	r4,r4,4256
    86e0:	01400dc4 	movi	r5,55
    86e4:	000d883a 	mov	r6,zero
    86e8:	00084340 	call	8434 <I2C_write>
    86ec:	e0bfff15 	stw	r2,-4(fp)
    86f0:	01000074 	movhi	r4,1
    86f4:	21042804 	addi	r4,r4,4256
    86f8:	000b883a 	mov	r5,zero
    86fc:	01800044 	movi	r6,1
    8700:	00084340 	call	8434 <I2C_write>
    8704:	e0bfff15 	stw	r2,-4(fp)
    8708:	e037883a 	mov	sp,fp
    870c:	dfc00117 	ldw	ra,4(sp)
    8710:	df000017 	ldw	fp,0(sp)
    8714:	dec00204 	addi	sp,sp,8
    8718:	f800283a 	ret

0000871c <main>:
    871c:	defff504 	addi	sp,sp,-44
    8720:	dfc00a15 	stw	ra,40(sp)
    8724:	df000915 	stw	fp,36(sp)
    8728:	dc400815 	stw	r17,32(sp)
    872c:	dc000715 	stw	r16,28(sp)
    8730:	df000904 	addi	fp,sp,36
    8734:	e03ffa85 	stb	zero,-22(fp)
    8738:	e03ffa05 	stb	zero,-24(fp)
    873c:	e03ffa45 	stb	zero,-23(fp)
    8740:	00c00184 	movi	r3,6
    8744:	00800074 	movhi	r2,1
    8748:	10841804 	addi	r2,r2,4192
    874c:	10c00035 	stwio	r3,0(r2)
    8750:	00c001c4 	movi	r3,7
    8754:	00800074 	movhi	r2,1
    8758:	10841804 	addi	r2,r2,4192
    875c:	10c00035 	stwio	r3,0(r2)
    8760:	e03ffc05 	stb	zero,-16(fp)
    8764:	00800804 	movi	r2,32
    8768:	e0bffc45 	stb	r2,-15(fp)
    876c:	00bfe004 	movi	r2,-128
    8770:	e0bffc85 	stb	r2,-14(fp)
    8774:	00800804 	movi	r2,32
    8778:	e0bffcc5 	stb	r2,-13(fp)
    877c:	00bfffc4 	movi	r2,-1
    8780:	e0bffd05 	stb	r2,-12(fp)
    8784:	00bfff44 	movi	r2,-3
    8788:	e0bffd45 	stb	r2,-11(fp)
    878c:	e03ffd85 	stb	zero,-10(fp)
    8790:	00800804 	movi	r2,32
    8794:	e0bffdc5 	stb	r2,-9(fp)
    8798:	d0a00203 	ldbu	r2,-32760(gp)
    879c:	10803fcc 	andi	r2,r2,255
    87a0:	1004d0ba 	srli	r2,r2,2
    87a4:	d0a1c285 	stb	r2,-30966(gp)
    87a8:	d0a00203 	ldbu	r2,-32760(gp)
    87ac:	100491ba 	slli	r2,r2,6
    87b0:	1007883a 	mov	r3,r2
    87b4:	d0a1c2c4 	addi	r2,gp,-30965
    87b8:	10c00005 	stb	r3,0(r2)
    87bc:	d8000015 	stw	zero,0(sp)
    87c0:	d8000115 	stw	zero,4(sp)
    87c4:	d8000215 	stw	zero,8(sp)
    87c8:	01000074 	movhi	r4,1
    87cc:	21041004 	addi	r4,r4,4160
    87d0:	000b883a 	mov	r5,zero
    87d4:	01800084 	movi	r6,2
    87d8:	d1e1c284 	addi	r7,gp,-30966
    87dc:	000a9940 	call	a994 <alt_avalon_spi_command>
    87e0:	e0bffb15 	stw	r2,-20(fp)
    87e4:	00bffe44 	movi	r2,-7
    87e8:	e0bffc05 	stb	r2,-16(fp)
    87ec:	e0fffc04 	addi	r3,fp,-16
    87f0:	008000c4 	movi	r2,3
    87f4:	d8800015 	stw	r2,0(sp)
    87f8:	e0bffc84 	addi	r2,fp,-14
    87fc:	d8800115 	stw	r2,4(sp)
    8800:	d8000215 	stw	zero,8(sp)
    8804:	01000074 	movhi	r4,1
    8808:	21040004 	addi	r4,r4,4096
    880c:	000b883a 	mov	r5,zero
    8810:	01800044 	movi	r6,1
    8814:	180f883a 	mov	r7,r3
    8818:	000a9940 	call	a994 <alt_avalon_spi_command>
    881c:	e0bffb15 	stw	r2,-20(fp)
    8820:	01000074 	movhi	r4,1
    8824:	21042804 	addi	r4,r4,4256
    8828:	01417db4 	movhi	r5,1526
    882c:	29784004 	addi	r5,r5,-7936
    8830:	018001b4 	movhi	r6,6
    8834:	3186a004 	addi	r6,r6,6784
    8838:	00082680 	call	8268 <I2C_init>
    883c:	00085f00 	call	85f0 <Configure_LM75>
    8840:	00800074 	movhi	r2,1
    8844:	10843404 	addi	r2,r2,4304
    8848:	10800037 	ldwio	r2,0(r2)
    884c:	e0bffa85 	stb	r2,-22(fp)
    8850:	e0bffa83 	ldbu	r2,-22(fp)
    8854:	100490fa 	slli	r2,r2,3
    8858:	10803fcc 	andi	r2,r2,255
    885c:	1009883a 	mov	r4,r2
    8860:	00085bc0 	call	85bc <set_led>
    8864:	00800074 	movhi	r2,1
    8868:	10843a04 	addi	r2,r2,4328
    886c:	10800037 	ldwio	r2,0(r2)
    8870:	e0bffb15 	stw	r2,-20(fp)
    8874:	e0bffb17 	ldw	r2,-20(fp)
    8878:	1080004c 	andi	r2,r2,1
    887c:	10058b1e 	bne	r2,zero,9eac <main+0x1790>
    8880:	01000074 	movhi	r4,1
    8884:	2133df04 	addi	r4,r4,-12420
    8888:	01401004 	movi	r5,64
    888c:	00085540 	call	8554 <getFifoData>
    8890:	01000074 	movhi	r4,1
    8894:	21338f04 	addi	r4,r4,-12740
    8898:	000b883a 	mov	r5,zero
    889c:	01801004 	movi	r6,64
    88a0:	000a6380 	call	a638 <memset>
    88a4:	d021c845 	stb	zero,-30943(gp)
    88a8:	d0a00017 	ldw	r2,-32768(gp)
    88ac:	d0e00117 	ldw	r3,-32764(gp)
    88b0:	18c00003 	ldbu	r3,0(r3)
    88b4:	10c00005 	stb	r3,0(r2)
    88b8:	d0a00017 	ldw	r2,-32768(gp)
    88bc:	d0e00117 	ldw	r3,-32764(gp)
    88c0:	18c00083 	ldbu	r3,2(r3)
    88c4:	10c00085 	stb	r3,2(r2)
    88c8:	d0a00017 	ldw	r2,-32768(gp)
    88cc:	d0e00117 	ldw	r3,-32764(gp)
    88d0:	18c000c3 	ldbu	r3,3(r3)
    88d4:	10c000c5 	stb	r3,3(r2)
    88d8:	d0a00017 	ldw	r2,-32768(gp)
    88dc:	00c000c4 	movi	r3,3
    88e0:	10c00045 	stb	r3,1(r2)
    88e4:	d0a00117 	ldw	r2,-32764(gp)
    88e8:	10800003 	ldbu	r2,0(r2)
    88ec:	10803fcc 	andi	r2,r2,255
    88f0:	10c018e8 	cmpgeui	r3,r2,99
    88f4:	1805581e 	bne	r3,zero,9e58 <main+0x173c>
    88f8:	100690ba 	slli	r3,r2,2
    88fc:	00800074 	movhi	r2,1
    8900:	10a24404 	addi	r2,r2,-30448
    8904:	1885883a 	add	r2,r3,r2
    8908:	10800017 	ldw	r2,0(r2)
    890c:	1000683a 	jmp	r2
    8910:	00008a9c 	xori	zero,zero,554
    8914:	00009e58 	cmpnei	zero,zero,633
    8918:	00009e58 	cmpnei	zero,zero,633
    891c:	00009e58 	cmpnei	zero,zero,633
    8920:	00009e58 	cmpnei	zero,zero,633
    8924:	00009e58 	cmpnei	zero,zero,633
    8928:	00009e58 	cmpnei	zero,zero,633
    892c:	00009e58 	cmpnei	zero,zero,633
    8930:	00009e58 	cmpnei	zero,zero,633
    8934:	00009e58 	cmpnei	zero,zero,633
    8938:	00009e58 	cmpnei	zero,zero,633
    893c:	00009e58 	cmpnei	zero,zero,633
    8940:	00009e58 	cmpnei	zero,zero,633
    8944:	00009e58 	cmpnei	zero,zero,633
    8948:	00009e58 	cmpnei	zero,zero,633
    894c:	00009e58 	cmpnei	zero,zero,633
    8950:	00009e58 	cmpnei	zero,zero,633
    8954:	00009e58 	cmpnei	zero,zero,633
    8958:	00009e58 	cmpnei	zero,zero,633
    895c:	000097bc 	xorhi	zero,zero,606
    8960:	000098d8 	cmpnei	zero,zero,611
    8964:	00009e58 	cmpnei	zero,zero,633
    8968:	00009e58 	cmpnei	zero,zero,633
    896c:	00009e58 	cmpnei	zero,zero,633
    8970:	00009e58 	cmpnei	zero,zero,633
    8974:	00009e58 	cmpnei	zero,zero,633
    8978:	00009e58 	cmpnei	zero,zero,633
    897c:	00009e58 	cmpnei	zero,zero,633
    8980:	00009e58 	cmpnei	zero,zero,633
    8984:	00009e58 	cmpnei	zero,zero,633
    8988:	00009e58 	cmpnei	zero,zero,633
    898c:	00009e58 	cmpnei	zero,zero,633
    8990:	00008ae4 	muli	zero,zero,555
    8994:	00008b98 	cmpnei	zero,zero,558
    8998:	00008c7c 	xorhi	zero,zero,561
    899c:	00009e58 	cmpnei	zero,zero,633
    89a0:	00009e58 	cmpnei	zero,zero,633
    89a4:	00009e58 	cmpnei	zero,zero,633
    89a8:	00009e58 	cmpnei	zero,zero,633
    89ac:	00009e58 	cmpnei	zero,zero,633
    89b0:	00009e58 	cmpnei	zero,zero,633
    89b4:	00009e58 	cmpnei	zero,zero,633
    89b8:	00009e58 	cmpnei	zero,zero,633
    89bc:	00009e58 	cmpnei	zero,zero,633
    89c0:	00009a38 	rdprs	zero,zero,616
    89c4:	00009e58 	cmpnei	zero,zero,633
    89c8:	00009e58 	cmpnei	zero,zero,633
    89cc:	00009e58 	cmpnei	zero,zero,633
    89d0:	00009e58 	cmpnei	zero,zero,633
    89d4:	00008f48 	cmpgei	zero,zero,573
    89d8:	00009e58 	cmpnei	zero,zero,633
    89dc:	00009e58 	cmpnei	zero,zero,633
    89e0:	00009e58 	cmpnei	zero,zero,633
    89e4:	00009e58 	cmpnei	zero,zero,633
    89e8:	00009e58 	cmpnei	zero,zero,633
    89ec:	00009e58 	cmpnei	zero,zero,633
    89f0:	00009e58 	cmpnei	zero,zero,633
    89f4:	00009e58 	cmpnei	zero,zero,633
    89f8:	00009e58 	cmpnei	zero,zero,633
    89fc:	00009e58 	cmpnei	zero,zero,633
    8a00:	00009e58 	cmpnei	zero,zero,633
    8a04:	00009e58 	cmpnei	zero,zero,633
    8a08:	00009e58 	cmpnei	zero,zero,633
    8a0c:	00009e58 	cmpnei	zero,zero,633
    8a10:	00009e58 	cmpnei	zero,zero,633
    8a14:	00009e58 	cmpnei	zero,zero,633
    8a18:	00009e58 	cmpnei	zero,zero,633
    8a1c:	00009e58 	cmpnei	zero,zero,633
    8a20:	00009e58 	cmpnei	zero,zero,633
    8a24:	00009e58 	cmpnei	zero,zero,633
    8a28:	00009e58 	cmpnei	zero,zero,633
    8a2c:	00009e58 	cmpnei	zero,zero,633
    8a30:	00009e58 	cmpnei	zero,zero,633
    8a34:	00009e58 	cmpnei	zero,zero,633
    8a38:	00009e58 	cmpnei	zero,zero,633
    8a3c:	00009e58 	cmpnei	zero,zero,633
    8a40:	00009e58 	cmpnei	zero,zero,633
    8a44:	00009e58 	cmpnei	zero,zero,633
    8a48:	00009e58 	cmpnei	zero,zero,633
    8a4c:	00009e58 	cmpnei	zero,zero,633
    8a50:	00009e58 	cmpnei	zero,zero,633
    8a54:	00009e58 	cmpnei	zero,zero,633
    8a58:	00009e58 	cmpnei	zero,zero,633
    8a5c:	000094ac 	andhi	zero,zero,594
    8a60:	00009e58 	cmpnei	zero,zero,633
    8a64:	00008d70 	cmpltui	zero,zero,565
    8a68:	00008e54 	movui	zero,569
    8a6c:	00009e58 	cmpnei	zero,zero,633
    8a70:	00009e58 	cmpnei	zero,zero,633
    8a74:	00009e58 	cmpnei	zero,zero,633
    8a78:	00009e58 	cmpnei	zero,zero,633
    8a7c:	00009e58 	cmpnei	zero,zero,633
    8a80:	00009e58 	cmpnei	zero,zero,633
    8a84:	00009e58 	cmpnei	zero,zero,633
    8a88:	00009e58 	cmpnei	zero,zero,633
    8a8c:	00009e58 	cmpnei	zero,zero,633
    8a90:	00009e58 	cmpnei	zero,zero,633
    8a94:	00009314 	movui	zero,588
    8a98:	00009060 	cmpeqi	zero,zero,577
    8a9c:	d0a00017 	ldw	r2,-32768(gp)
    8aa0:	00c00144 	movi	r3,5
    8aa4:	10c00205 	stb	r3,8(r2)
    8aa8:	d0a00017 	ldw	r2,-32768(gp)
    8aac:	00c003c4 	movi	r3,15
    8ab0:	10c00245 	stb	r3,9(r2)
    8ab4:	d0a00017 	ldw	r2,-32768(gp)
    8ab8:	00c00044 	movi	r3,1
    8abc:	10c00285 	stb	r3,10(r2)
    8ac0:	d0a00017 	ldw	r2,-32768(gp)
    8ac4:	00c00044 	movi	r3,1
    8ac8:	10c002c5 	stb	r3,11(r2)
    8acc:	d0a00017 	ldw	r2,-32768(gp)
    8ad0:	10000305 	stb	zero,12(r2)
    8ad4:	d0a00017 	ldw	r2,-32768(gp)
    8ad8:	00c00044 	movi	r3,1
    8adc:	10c00045 	stb	r3,1(r2)
    8ae0:	0004e106 	br	9e68 <main+0x174c>
    8ae4:	d0a00117 	ldw	r2,-32764(gp)
    8ae8:	10800203 	ldbu	r2,8(r2)
    8aec:	10803fcc 	andi	r2,r2,255
    8af0:	10c00060 	cmpeqi	r3,r2,1
    8af4:	1800081e 	bne	r3,zero,8b18 <main+0x3fc>
    8af8:	10c000a0 	cmpeqi	r3,r2,2
    8afc:	18000b1e 	bne	r3,zero,8b2c <main+0x410>
    8b00:	10001d1e 	bne	r2,zero,8b78 <main+0x45c>
    8b04:	00c001c4 	movi	r3,7
    8b08:	00800074 	movhi	r2,1
    8b0c:	10841804 	addi	r2,r2,4192
    8b10:	10c00035 	stwio	r3,0(r2)
    8b14:	00001c06 	br	8b88 <main+0x46c>
    8b18:	00c00184 	movi	r3,6
    8b1c:	00800074 	movhi	r2,1
    8b20:	10841804 	addi	r2,r2,4192
    8b24:	10c00035 	stwio	r3,0(r2)
    8b28:	00001706 	br	8b88 <main+0x46c>
    8b2c:	00c00184 	movi	r3,6
    8b30:	00800074 	movhi	r2,1
    8b34:	10841804 	addi	r2,r2,4192
    8b38:	10c00035 	stwio	r3,0(r2)
    8b3c:	0001883a 	nop
    8b40:	0001883a 	nop
    8b44:	0001883a 	nop
    8b48:	0001883a 	nop
    8b4c:	0001883a 	nop
    8b50:	0001883a 	nop
    8b54:	0001883a 	nop
    8b58:	0001883a 	nop
    8b5c:	0001883a 	nop
    8b60:	0001883a 	nop
    8b64:	00c001c4 	movi	r3,7
    8b68:	00800074 	movhi	r2,1
    8b6c:	10841804 	addi	r2,r2,4192
    8b70:	10c00035 	stwio	r3,0(r2)
    8b74:	00000406 	br	8b88 <main+0x46c>
    8b78:	d0a1c843 	ldbu	r2,-30943(gp)
    8b7c:	10800044 	addi	r2,r2,1
    8b80:	d0a1c845 	stb	r2,-30943(gp)
    8b84:	0001883a 	nop
    8b88:	d0a00017 	ldw	r2,-32768(gp)
    8b8c:	00c00044 	movi	r3,1
    8b90:	10c00045 	stb	r3,1(r2)
    8b94:	0004b406 	br	9e68 <main+0x174c>
    8b98:	01000104 	movi	r4,4
    8b9c:	00084e00 	call	84e0 <Check_many_blocks>
    8ba0:	10803fcc 	andi	r2,r2,255
    8ba4:	10000126 	beq	r2,zero,8bac <main+0x490>
    8ba8:	0004af06 	br	9e68 <main+0x174c>
    8bac:	d021c205 	stb	zero,-30968(gp)
    8bb0:	00002806 	br	8c54 <main+0x538>
    8bb4:	d0e00117 	ldw	r3,-32764(gp)
    8bb8:	d0a1c203 	ldbu	r2,-30968(gp)
    8bbc:	10803fcc 	andi	r2,r2,255
    8bc0:	1085883a 	add	r2,r2,r2
    8bc4:	1085883a 	add	r2,r2,r2
    8bc8:	100b883a 	mov	r5,r2
    8bcc:	d1200117 	ldw	r4,-32764(gp)
    8bd0:	d0a1c203 	ldbu	r2,-30968(gp)
    8bd4:	10803fcc 	andi	r2,r2,255
    8bd8:	1085883a 	add	r2,r2,r2
    8bdc:	1085883a 	add	r2,r2,r2
    8be0:	2085883a 	add	r2,r4,r2
    8be4:	10800204 	addi	r2,r2,8
    8be8:	11000003 	ldbu	r4,0(r2)
    8bec:	00bfe004 	movi	r2,-128
    8bf0:	2084b03a 	or	r2,r4,r2
    8bf4:	1009883a 	mov	r4,r2
    8bf8:	1945883a 	add	r2,r3,r5
    8bfc:	10800204 	addi	r2,r2,8
    8c00:	11000005 	stb	r4,0(r2)
    8c04:	d0e00117 	ldw	r3,-32764(gp)
    8c08:	d0a1c203 	ldbu	r2,-30968(gp)
    8c0c:	10803fcc 	andi	r2,r2,255
    8c10:	1085883a 	add	r2,r2,r2
    8c14:	1085883a 	add	r2,r2,r2
    8c18:	10800204 	addi	r2,r2,8
    8c1c:	1885883a 	add	r2,r3,r2
    8c20:	d8000015 	stw	zero,0(sp)
    8c24:	d8000115 	stw	zero,4(sp)
    8c28:	d8000215 	stw	zero,8(sp)
    8c2c:	01000074 	movhi	r4,1
    8c30:	21041004 	addi	r4,r4,4160
    8c34:	000b883a 	mov	r5,zero
    8c38:	01800104 	movi	r6,4
    8c3c:	100f883a 	mov	r7,r2
    8c40:	000a9940 	call	a994 <alt_avalon_spi_command>
    8c44:	e0bffb15 	stw	r2,-20(fp)
    8c48:	d0a1c203 	ldbu	r2,-30968(gp)
    8c4c:	10800044 	addi	r2,r2,1
    8c50:	d0a1c205 	stb	r2,-30968(gp)
    8c54:	d0a00117 	ldw	r2,-32764(gp)
    8c58:	10800083 	ldbu	r2,2(r2)
    8c5c:	d0e1c203 	ldbu	r3,-30968(gp)
    8c60:	10803fcc 	andi	r2,r2,255
    8c64:	18c03fcc 	andi	r3,r3,255
    8c68:	18bfd236 	bltu	r3,r2,8bb4 <_gp+0xffff44bc>
    8c6c:	d0a00017 	ldw	r2,-32768(gp)
    8c70:	00c00044 	movi	r3,1
    8c74:	10c00045 	stb	r3,1(r2)
    8c78:	00047b06 	br	9e68 <main+0x174c>
    8c7c:	01000104 	movi	r4,4
    8c80:	00084e00 	call	84e0 <Check_many_blocks>
    8c84:	10803fcc 	andi	r2,r2,255
    8c88:	10000126 	beq	r2,zero,8c90 <main+0x574>
    8c8c:	00047606 	br	9e68 <main+0x174c>
    8c90:	d021c205 	stb	zero,-30968(gp)
    8c94:	00002c06 	br	8d48 <main+0x62c>
    8c98:	d0e00117 	ldw	r3,-32764(gp)
    8c9c:	d0a1c203 	ldbu	r2,-30968(gp)
    8ca0:	10803fcc 	andi	r2,r2,255
    8ca4:	1085883a 	add	r2,r2,r2
    8ca8:	100b883a 	mov	r5,r2
    8cac:	d1200117 	ldw	r4,-32764(gp)
    8cb0:	d0a1c203 	ldbu	r2,-30968(gp)
    8cb4:	10803fcc 	andi	r2,r2,255
    8cb8:	1085883a 	add	r2,r2,r2
    8cbc:	2085883a 	add	r2,r4,r2
    8cc0:	10800204 	addi	r2,r2,8
    8cc4:	10800003 	ldbu	r2,0(r2)
    8cc8:	10801fcc 	andi	r2,r2,127
    8ccc:	1009883a 	mov	r4,r2
    8cd0:	1945883a 	add	r2,r3,r5
    8cd4:	10800204 	addi	r2,r2,8
    8cd8:	11000005 	stb	r4,0(r2)
    8cdc:	d0e00117 	ldw	r3,-32764(gp)
    8ce0:	d0a1c203 	ldbu	r2,-30968(gp)
    8ce4:	10803fcc 	andi	r2,r2,255
    8ce8:	1085883a 	add	r2,r2,r2
    8cec:	10800204 	addi	r2,r2,8
    8cf0:	188f883a 	add	r7,r3,r2
    8cf4:	d0e00017 	ldw	r3,-32768(gp)
    8cf8:	d0a1c203 	ldbu	r2,-30968(gp)
    8cfc:	10803fcc 	andi	r2,r2,255
    8d00:	1085883a 	add	r2,r2,r2
    8d04:	1085883a 	add	r2,r2,r2
    8d08:	10800084 	addi	r2,r2,2
    8d0c:	10800204 	addi	r2,r2,8
    8d10:	1885883a 	add	r2,r3,r2
    8d14:	00c00084 	movi	r3,2
    8d18:	d8c00015 	stw	r3,0(sp)
    8d1c:	d8800115 	stw	r2,4(sp)
    8d20:	d8000215 	stw	zero,8(sp)
    8d24:	01000074 	movhi	r4,1
    8d28:	21041004 	addi	r4,r4,4160
    8d2c:	000b883a 	mov	r5,zero
    8d30:	01800084 	movi	r6,2
    8d34:	000a9940 	call	a994 <alt_avalon_spi_command>
    8d38:	e0bffb15 	stw	r2,-20(fp)
    8d3c:	d0a1c203 	ldbu	r2,-30968(gp)
    8d40:	10800044 	addi	r2,r2,1
    8d44:	d0a1c205 	stb	r2,-30968(gp)
    8d48:	d0a00117 	ldw	r2,-32764(gp)
    8d4c:	10800083 	ldbu	r2,2(r2)
    8d50:	d0e1c203 	ldbu	r3,-30968(gp)
    8d54:	10803fcc 	andi	r2,r2,255
    8d58:	18c03fcc 	andi	r3,r3,255
    8d5c:	18bfce36 	bltu	r3,r2,8c98 <_gp+0xffff45a0>
    8d60:	d0a00017 	ldw	r2,-32768(gp)
    8d64:	00c00044 	movi	r3,1
    8d68:	10c00045 	stb	r3,1(r2)
    8d6c:	00043e06 	br	9e68 <main+0x174c>
    8d70:	01000104 	movi	r4,4
    8d74:	00084e00 	call	84e0 <Check_many_blocks>
    8d78:	10803fcc 	andi	r2,r2,255
    8d7c:	10000126 	beq	r2,zero,8d84 <main+0x668>
    8d80:	00043906 	br	9e68 <main+0x174c>
    8d84:	d021c205 	stb	zero,-30968(gp)
    8d88:	00002806 	br	8e2c <main+0x710>
    8d8c:	d0e00117 	ldw	r3,-32764(gp)
    8d90:	d0a1c203 	ldbu	r2,-30968(gp)
    8d94:	10803fcc 	andi	r2,r2,255
    8d98:	1085883a 	add	r2,r2,r2
    8d9c:	1085883a 	add	r2,r2,r2
    8da0:	100b883a 	mov	r5,r2
    8da4:	d1200117 	ldw	r4,-32764(gp)
    8da8:	d0a1c203 	ldbu	r2,-30968(gp)
    8dac:	10803fcc 	andi	r2,r2,255
    8db0:	1085883a 	add	r2,r2,r2
    8db4:	1085883a 	add	r2,r2,r2
    8db8:	2085883a 	add	r2,r4,r2
    8dbc:	10800204 	addi	r2,r2,8
    8dc0:	11000003 	ldbu	r4,0(r2)
    8dc4:	00bfe004 	movi	r2,-128
    8dc8:	2084b03a 	or	r2,r4,r2
    8dcc:	1009883a 	mov	r4,r2
    8dd0:	1945883a 	add	r2,r3,r5
    8dd4:	10800204 	addi	r2,r2,8
    8dd8:	11000005 	stb	r4,0(r2)
    8ddc:	d0e00117 	ldw	r3,-32764(gp)
    8de0:	d0a1c203 	ldbu	r2,-30968(gp)
    8de4:	10803fcc 	andi	r2,r2,255
    8de8:	1085883a 	add	r2,r2,r2
    8dec:	1085883a 	add	r2,r2,r2
    8df0:	10800204 	addi	r2,r2,8
    8df4:	1885883a 	add	r2,r3,r2
    8df8:	d8000015 	stw	zero,0(sp)
    8dfc:	d8000115 	stw	zero,4(sp)
    8e00:	d8000215 	stw	zero,8(sp)
    8e04:	01000074 	movhi	r4,1
    8e08:	21041004 	addi	r4,r4,4160
    8e0c:	01400044 	movi	r5,1
    8e10:	01800104 	movi	r6,4
    8e14:	100f883a 	mov	r7,r2
    8e18:	000a9940 	call	a994 <alt_avalon_spi_command>
    8e1c:	e0bffb15 	stw	r2,-20(fp)
    8e20:	d0a1c203 	ldbu	r2,-30968(gp)
    8e24:	10800044 	addi	r2,r2,1
    8e28:	d0a1c205 	stb	r2,-30968(gp)
    8e2c:	d0a00117 	ldw	r2,-32764(gp)
    8e30:	10800083 	ldbu	r2,2(r2)
    8e34:	d0e1c203 	ldbu	r3,-30968(gp)
    8e38:	10803fcc 	andi	r2,r2,255
    8e3c:	18c03fcc 	andi	r3,r3,255
    8e40:	18bfd236 	bltu	r3,r2,8d8c <_gp+0xffff4694>
    8e44:	d0a00017 	ldw	r2,-32768(gp)
    8e48:	00c00044 	movi	r3,1
    8e4c:	10c00045 	stb	r3,1(r2)
    8e50:	00040506 	br	9e68 <main+0x174c>
    8e54:	01000104 	movi	r4,4
    8e58:	00084e00 	call	84e0 <Check_many_blocks>
    8e5c:	10803fcc 	andi	r2,r2,255
    8e60:	10000126 	beq	r2,zero,8e68 <main+0x74c>
    8e64:	00040006 	br	9e68 <main+0x174c>
    8e68:	d021c205 	stb	zero,-30968(gp)
    8e6c:	00002c06 	br	8f20 <main+0x804>
    8e70:	d0e00117 	ldw	r3,-32764(gp)
    8e74:	d0a1c203 	ldbu	r2,-30968(gp)
    8e78:	10803fcc 	andi	r2,r2,255
    8e7c:	1085883a 	add	r2,r2,r2
    8e80:	100b883a 	mov	r5,r2
    8e84:	d1200117 	ldw	r4,-32764(gp)
    8e88:	d0a1c203 	ldbu	r2,-30968(gp)
    8e8c:	10803fcc 	andi	r2,r2,255
    8e90:	1085883a 	add	r2,r2,r2
    8e94:	2085883a 	add	r2,r4,r2
    8e98:	10800204 	addi	r2,r2,8
    8e9c:	10800003 	ldbu	r2,0(r2)
    8ea0:	10801fcc 	andi	r2,r2,127
    8ea4:	1009883a 	mov	r4,r2
    8ea8:	1945883a 	add	r2,r3,r5
    8eac:	10800204 	addi	r2,r2,8
    8eb0:	11000005 	stb	r4,0(r2)
    8eb4:	d0e00117 	ldw	r3,-32764(gp)
    8eb8:	d0a1c203 	ldbu	r2,-30968(gp)
    8ebc:	10803fcc 	andi	r2,r2,255
    8ec0:	1085883a 	add	r2,r2,r2
    8ec4:	10800204 	addi	r2,r2,8
    8ec8:	188f883a 	add	r7,r3,r2
    8ecc:	d0e00017 	ldw	r3,-32768(gp)
    8ed0:	d0a1c203 	ldbu	r2,-30968(gp)
    8ed4:	10803fcc 	andi	r2,r2,255
    8ed8:	1085883a 	add	r2,r2,r2
    8edc:	1085883a 	add	r2,r2,r2
    8ee0:	10800084 	addi	r2,r2,2
    8ee4:	10800204 	addi	r2,r2,8
    8ee8:	1885883a 	add	r2,r3,r2
    8eec:	00c00084 	movi	r3,2
    8ef0:	d8c00015 	stw	r3,0(sp)
    8ef4:	d8800115 	stw	r2,4(sp)
    8ef8:	d8000215 	stw	zero,8(sp)
    8efc:	01000074 	movhi	r4,1
    8f00:	21041004 	addi	r4,r4,4160
    8f04:	01400044 	movi	r5,1
    8f08:	01800084 	movi	r6,2
    8f0c:	000a9940 	call	a994 <alt_avalon_spi_command>
    8f10:	e0bffb15 	stw	r2,-20(fp)
    8f14:	d0a1c203 	ldbu	r2,-30968(gp)
    8f18:	10800044 	addi	r2,r2,1
    8f1c:	d0a1c205 	stb	r2,-30968(gp)
    8f20:	d0a00117 	ldw	r2,-32764(gp)
    8f24:	10800083 	ldbu	r2,2(r2)
    8f28:	d0e1c203 	ldbu	r3,-30968(gp)
    8f2c:	10803fcc 	andi	r2,r2,255
    8f30:	18c03fcc 	andi	r3,r3,255
    8f34:	18bfce36 	bltu	r3,r2,8e70 <_gp+0xffff4778>
    8f38:	d0a00017 	ldw	r2,-32768(gp)
    8f3c:	00c00044 	movi	r3,1
    8f40:	10c00045 	stb	r3,1(r2)
    8f44:	0003c806 	br	9e68 <main+0x174c>
    8f48:	010000c4 	movi	r4,3
    8f4c:	00084e00 	call	84e0 <Check_many_blocks>
    8f50:	10803fcc 	andi	r2,r2,255
    8f54:	10000126 	beq	r2,zero,8f5c <main+0x840>
    8f58:	0003c306 	br	9e68 <main+0x174c>
    8f5c:	d021c205 	stb	zero,-30968(gp)
    8f60:	00002e06 	br	901c <main+0x900>
    8f64:	d0a00117 	ldw	r2,-32764(gp)
    8f68:	108000c3 	ldbu	r2,3(r2)
    8f6c:	10803fcc 	andi	r2,r2,255
    8f70:	10000626 	beq	r2,zero,8f8c <main+0x870>
    8f74:	10800060 	cmpeqi	r2,r2,1
    8f78:	1000061e 	bne	r2,zero,8f94 <main+0x878>
    8f7c:	d0a1c843 	ldbu	r2,-30943(gp)
    8f80:	10800044 	addi	r2,r2,1
    8f84:	d0a1c845 	stb	r2,-30943(gp)
    8f88:	00000306 	br	8f98 <main+0x87c>
    8f8c:	0001883a 	nop
    8f90:	00000106 	br	8f98 <main+0x87c>
    8f94:	0001883a 	nop
    8f98:	d1200117 	ldw	r4,-32764(gp)
    8f9c:	d0a1c203 	ldbu	r2,-30968(gp)
    8fa0:	10c03fcc 	andi	r3,r2,255
    8fa4:	1805883a 	mov	r2,r3
    8fa8:	1085883a 	add	r2,r2,r2
    8fac:	10c5883a 	add	r2,r2,r3
    8fb0:	10800204 	addi	r2,r2,8
    8fb4:	2085883a 	add	r2,r4,r2
    8fb8:	d8000015 	stw	zero,0(sp)
    8fbc:	d8000115 	stw	zero,4(sp)
    8fc0:	d8000215 	stw	zero,8(sp)
    8fc4:	0009883a 	mov	r4,zero
    8fc8:	000b883a 	mov	r5,zero
    8fcc:	018000c4 	movi	r6,3
    8fd0:	100f883a 	mov	r7,r2
    8fd4:	000a9940 	call	a994 <alt_avalon_spi_command>
    8fd8:	e0bffb15 	stw	r2,-20(fp)
    8fdc:	d0a00117 	ldw	r2,-32764(gp)
    8fe0:	108000c3 	ldbu	r2,3(r2)
    8fe4:	10803fcc 	andi	r2,r2,255
    8fe8:	10000626 	beq	r2,zero,9004 <main+0x8e8>
    8fec:	10800060 	cmpeqi	r2,r2,1
    8ff0:	1000061e 	bne	r2,zero,900c <main+0x8f0>
    8ff4:	d0a1c843 	ldbu	r2,-30943(gp)
    8ff8:	10800044 	addi	r2,r2,1
    8ffc:	d0a1c845 	stb	r2,-30943(gp)
    9000:	00000306 	br	9010 <main+0x8f4>
    9004:	0001883a 	nop
    9008:	00000106 	br	9010 <main+0x8f4>
    900c:	0001883a 	nop
    9010:	d0a1c203 	ldbu	r2,-30968(gp)
    9014:	10800044 	addi	r2,r2,1
    9018:	d0a1c205 	stb	r2,-30968(gp)
    901c:	d0a00117 	ldw	r2,-32764(gp)
    9020:	10800083 	ldbu	r2,2(r2)
    9024:	d0e1c203 	ldbu	r3,-30968(gp)
    9028:	10803fcc 	andi	r2,r2,255
    902c:	18c03fcc 	andi	r3,r3,255
    9030:	18bfcc36 	bltu	r3,r2,8f64 <_gp+0xffff486c>
    9034:	d0a1c843 	ldbu	r2,-30943(gp)
    9038:	10803fcc 	andi	r2,r2,255
    903c:	10000426 	beq	r2,zero,9050 <main+0x934>
    9040:	d0a00017 	ldw	r2,-32768(gp)
    9044:	00c00204 	movi	r3,8
    9048:	10c00045 	stb	r3,1(r2)
    904c:	00038606 	br	9e68 <main+0x174c>
    9050:	d0a00017 	ldw	r2,-32768(gp)
    9054:	00c00044 	movi	r3,1
    9058:	10c00045 	stb	r3,1(r2)
    905c:	00038206 	br	9e68 <main+0x174c>
    9060:	d021c205 	stb	zero,-30968(gp)
    9064:	0000a106 	br	92ec <main+0xbd0>
    9068:	d0e00117 	ldw	r3,-32764(gp)
    906c:	d0a1c203 	ldbu	r2,-30968(gp)
    9070:	10803fcc 	andi	r2,r2,255
    9074:	1885883a 	add	r2,r3,r2
    9078:	10800204 	addi	r2,r2,8
    907c:	10800003 	ldbu	r2,0(r2)
    9080:	10803fcc 	andi	r2,r2,255
    9084:	10000326 	beq	r2,zero,9094 <main+0x978>
    9088:	10800060 	cmpeqi	r2,r2,1
    908c:	10002d1e 	bne	r2,zero,9144 <main+0xa28>
    9090:	00008f06 	br	92d0 <main+0xbb4>
    9094:	d1200017 	ldw	r4,-32768(gp)
    9098:	d0a1c203 	ldbu	r2,-30968(gp)
    909c:	10803fcc 	andi	r2,r2,255
    90a0:	1085883a 	add	r2,r2,r2
    90a4:	1085883a 	add	r2,r2,r2
    90a8:	100b883a 	mov	r5,r2
    90ac:	d0e00117 	ldw	r3,-32764(gp)
    90b0:	d0a1c203 	ldbu	r2,-30968(gp)
    90b4:	10803fcc 	andi	r2,r2,255
    90b8:	1885883a 	add	r2,r3,r2
    90bc:	10800204 	addi	r2,r2,8
    90c0:	10c00003 	ldbu	r3,0(r2)
    90c4:	2145883a 	add	r2,r4,r5
    90c8:	10800204 	addi	r2,r2,8
    90cc:	10c00005 	stb	r3,0(r2)
    90d0:	d0e00017 	ldw	r3,-32768(gp)
    90d4:	d0a1c203 	ldbu	r2,-30968(gp)
    90d8:	10803fcc 	andi	r2,r2,255
    90dc:	1085883a 	add	r2,r2,r2
    90e0:	1085883a 	add	r2,r2,r2
    90e4:	10800044 	addi	r2,r2,1
    90e8:	1885883a 	add	r2,r3,r2
    90ec:	10800204 	addi	r2,r2,8
    90f0:	10000005 	stb	zero,0(r2)
    90f4:	d0e00017 	ldw	r3,-32768(gp)
    90f8:	d0a1c203 	ldbu	r2,-30968(gp)
    90fc:	10803fcc 	andi	r2,r2,255
    9100:	1085883a 	add	r2,r2,r2
    9104:	1085883a 	add	r2,r2,r2
    9108:	10800084 	addi	r2,r2,2
    910c:	1885883a 	add	r2,r3,r2
    9110:	10800204 	addi	r2,r2,8
    9114:	10000005 	stb	zero,0(r2)
    9118:	d1200017 	ldw	r4,-32768(gp)
    911c:	d0a1c203 	ldbu	r2,-30968(gp)
    9120:	10803fcc 	andi	r2,r2,255
    9124:	1085883a 	add	r2,r2,r2
    9128:	1085883a 	add	r2,r2,r2
    912c:	108000c4 	addi	r2,r2,3
    9130:	d0e00203 	ldbu	r3,-32760(gp)
    9134:	2085883a 	add	r2,r4,r2
    9138:	10800204 	addi	r2,r2,8
    913c:	10c00005 	stb	r3,0(r2)
    9140:	00006706 	br	92e0 <main+0xbc4>
    9144:	01000074 	movhi	r4,1
    9148:	21042804 	addi	r4,r4,4256
    914c:	01401204 	movi	r5,72
    9150:	000d883a 	mov	r6,zero
    9154:	000831c0 	call	831c <I2C_start>
    9158:	e0bffb15 	stw	r2,-20(fp)
    915c:	01000074 	movhi	r4,1
    9160:	21042804 	addi	r4,r4,4256
    9164:	000b883a 	mov	r5,zero
    9168:	01800044 	movi	r6,1
    916c:	00084340 	call	8434 <I2C_write>
    9170:	e0bffb15 	stw	r2,-20(fp)
    9174:	01000074 	movhi	r4,1
    9178:	21042804 	addi	r4,r4,4256
    917c:	01401204 	movi	r5,72
    9180:	01800044 	movi	r6,1
    9184:	000831c0 	call	831c <I2C_start>
    9188:	e0bffb15 	stw	r2,-20(fp)
    918c:	01000074 	movhi	r4,1
    9190:	21042804 	addi	r4,r4,4256
    9194:	000b883a 	mov	r5,zero
    9198:	00083b80 	call	83b8 <I2C_read>
    919c:	d0a0028d 	sth	r2,-32758(gp)
    91a0:	d0a0028b 	ldhu	r2,-32758(gp)
    91a4:	10bfffcc 	andi	r2,r2,65535
    91a8:	10a0001c 	xori	r2,r2,32768
    91ac:	10a00004 	addi	r2,r2,-32768
    91b0:	1004923a 	slli	r2,r2,8
    91b4:	d0a0028d 	sth	r2,-32758(gp)
    91b8:	d0a0028b 	ldhu	r2,-32758(gp)
    91bc:	10bfffcc 	andi	r2,r2,65535
    91c0:	10a0001c 	xori	r2,r2,32768
    91c4:	10a00004 	addi	r2,r2,-32768
    91c8:	1005d23a 	srai	r2,r2,8
    91cc:	1009883a 	mov	r4,r2
    91d0:	01400284 	movi	r5,10
    91d4:	000a4d80 	call	a4d8 <__mulsi3>
    91d8:	d0a0028d 	sth	r2,-32758(gp)
    91dc:	01000074 	movhi	r4,1
    91e0:	21042804 	addi	r4,r4,4256
    91e4:	01400044 	movi	r5,1
    91e8:	00083b80 	call	83b8 <I2C_read>
    91ec:	e0bffb15 	stw	r2,-20(fp)
    91f0:	e0bffb17 	ldw	r2,-20(fp)
    91f4:	1080200c 	andi	r2,r2,128
    91f8:	10000326 	beq	r2,zero,9208 <main+0xaec>
    91fc:	d0a0028b 	ldhu	r2,-32758(gp)
    9200:	10800144 	addi	r2,r2,5
    9204:	d0a0028d 	sth	r2,-32758(gp)
    9208:	d1200017 	ldw	r4,-32768(gp)
    920c:	d0a1c203 	ldbu	r2,-30968(gp)
    9210:	10803fcc 	andi	r2,r2,255
    9214:	1085883a 	add	r2,r2,r2
    9218:	1085883a 	add	r2,r2,r2
    921c:	100b883a 	mov	r5,r2
    9220:	d0e00117 	ldw	r3,-32764(gp)
    9224:	d0a1c203 	ldbu	r2,-30968(gp)
    9228:	10803fcc 	andi	r2,r2,255
    922c:	1885883a 	add	r2,r3,r2
    9230:	10800204 	addi	r2,r2,8
    9234:	10c00003 	ldbu	r3,0(r2)
    9238:	2145883a 	add	r2,r4,r5
    923c:	10800204 	addi	r2,r2,8
    9240:	10c00005 	stb	r3,0(r2)
    9244:	d0e00017 	ldw	r3,-32768(gp)
    9248:	d0a1c203 	ldbu	r2,-30968(gp)
    924c:	10803fcc 	andi	r2,r2,255
    9250:	1085883a 	add	r2,r2,r2
    9254:	1085883a 	add	r2,r2,r2
    9258:	10800044 	addi	r2,r2,1
    925c:	1885883a 	add	r2,r3,r2
    9260:	10800204 	addi	r2,r2,8
    9264:	00c01404 	movi	r3,80
    9268:	10c00005 	stb	r3,0(r2)
    926c:	d0e00017 	ldw	r3,-32768(gp)
    9270:	d0a1c203 	ldbu	r2,-30968(gp)
    9274:	10803fcc 	andi	r2,r2,255
    9278:	1085883a 	add	r2,r2,r2
    927c:	1085883a 	add	r2,r2,r2
    9280:	10800084 	addi	r2,r2,2
    9284:	d120028b 	ldhu	r4,-32758(gp)
    9288:	213fffcc 	andi	r4,r4,65535
    928c:	2120001c 	xori	r4,r4,32768
    9290:	21200004 	addi	r4,r4,-32768
    9294:	2009d23a 	srai	r4,r4,8
    9298:	1885883a 	add	r2,r3,r2
    929c:	10800204 	addi	r2,r2,8
    92a0:	11000005 	stb	r4,0(r2)
    92a4:	d0e00017 	ldw	r3,-32768(gp)
    92a8:	d0a1c203 	ldbu	r2,-30968(gp)
    92ac:	10803fcc 	andi	r2,r2,255
    92b0:	1085883a 	add	r2,r2,r2
    92b4:	1085883a 	add	r2,r2,r2
    92b8:	108000c4 	addi	r2,r2,3
    92bc:	d120028b 	ldhu	r4,-32758(gp)
    92c0:	1885883a 	add	r2,r3,r2
    92c4:	10800204 	addi	r2,r2,8
    92c8:	11000005 	stb	r4,0(r2)
    92cc:	00000406 	br	92e0 <main+0xbc4>
    92d0:	d0a1c843 	ldbu	r2,-30943(gp)
    92d4:	10800044 	addi	r2,r2,1
    92d8:	d0a1c845 	stb	r2,-30943(gp)
    92dc:	0001883a 	nop
    92e0:	d0a1c203 	ldbu	r2,-30968(gp)
    92e4:	10800044 	addi	r2,r2,1
    92e8:	d0a1c205 	stb	r2,-30968(gp)
    92ec:	d0a00117 	ldw	r2,-32764(gp)
    92f0:	10800083 	ldbu	r2,2(r2)
    92f4:	d0e1c203 	ldbu	r3,-30968(gp)
    92f8:	10803fcc 	andi	r2,r2,255
    92fc:	18c03fcc 	andi	r3,r3,255
    9300:	18bf5936 	bltu	r3,r2,9068 <_gp+0xffff4970>
    9304:	d0a00017 	ldw	r2,-32768(gp)
    9308:	00c00044 	movi	r3,1
    930c:	10c00045 	stb	r3,1(r2)
    9310:	0002d506 	br	9e68 <main+0x174c>
    9314:	01000104 	movi	r4,4
    9318:	00084e00 	call	84e0 <Check_many_blocks>
    931c:	10803fcc 	andi	r2,r2,255
    9320:	10000126 	beq	r2,zero,9328 <main+0xc0c>
    9324:	0002d006 	br	9e68 <main+0x174c>
    9328:	d021c205 	stb	zero,-30968(gp)
    932c:	00004e06 	br	9468 <main+0xd4c>
    9330:	d0e00117 	ldw	r3,-32764(gp)
    9334:	d0a1c203 	ldbu	r2,-30968(gp)
    9338:	10803fcc 	andi	r2,r2,255
    933c:	1085883a 	add	r2,r2,r2
    9340:	1085883a 	add	r2,r2,r2
    9344:	1885883a 	add	r2,r3,r2
    9348:	10800204 	addi	r2,r2,8
    934c:	10800003 	ldbu	r2,0(r2)
    9350:	10803fcc 	andi	r2,r2,255
    9354:	10003d1e 	bne	r2,zero,944c <main+0xd30>
    9358:	d0e00117 	ldw	r3,-32764(gp)
    935c:	d0a1c203 	ldbu	r2,-30968(gp)
    9360:	10803fcc 	andi	r2,r2,255
    9364:	1085883a 	add	r2,r2,r2
    9368:	1085883a 	add	r2,r2,r2
    936c:	10800044 	addi	r2,r2,1
    9370:	1885883a 	add	r2,r3,r2
    9374:	10800204 	addi	r2,r2,8
    9378:	10800003 	ldbu	r2,0(r2)
    937c:	10803fcc 	andi	r2,r2,255
    9380:	10002e1e 	bne	r2,zero,943c <main+0xd20>
    9384:	d0e00117 	ldw	r3,-32764(gp)
    9388:	d0a1c203 	ldbu	r2,-30968(gp)
    938c:	10803fcc 	andi	r2,r2,255
    9390:	1085883a 	add	r2,r2,r2
    9394:	1085883a 	add	r2,r2,r2
    9398:	10800084 	addi	r2,r2,2
    939c:	1885883a 	add	r2,r3,r2
    93a0:	10800204 	addi	r2,r2,8
    93a4:	10800003 	ldbu	r2,0(r2)
    93a8:	10803fcc 	andi	r2,r2,255
    93ac:	10001f1e 	bne	r2,zero,942c <main+0xd10>
    93b0:	d0e00117 	ldw	r3,-32764(gp)
    93b4:	d0a1c203 	ldbu	r2,-30968(gp)
    93b8:	10803fcc 	andi	r2,r2,255
    93bc:	1085883a 	add	r2,r2,r2
    93c0:	1085883a 	add	r2,r2,r2
    93c4:	108000c4 	addi	r2,r2,3
    93c8:	1885883a 	add	r2,r3,r2
    93cc:	10800204 	addi	r2,r2,8
    93d0:	10800003 	ldbu	r2,0(r2)
    93d4:	d0a00205 	stb	r2,-32760(gp)
    93d8:	d0a00203 	ldbu	r2,-32760(gp)
    93dc:	10803fcc 	andi	r2,r2,255
    93e0:	1004d0ba 	srli	r2,r2,2
    93e4:	d0a1c285 	stb	r2,-30966(gp)
    93e8:	d0a00203 	ldbu	r2,-32760(gp)
    93ec:	10803fcc 	andi	r2,r2,255
    93f0:	100491ba 	slli	r2,r2,6
    93f4:	1007883a 	mov	r3,r2
    93f8:	d0a1c2c4 	addi	r2,gp,-30965
    93fc:	10c00005 	stb	r3,0(r2)
    9400:	d8000015 	stw	zero,0(sp)
    9404:	d8000115 	stw	zero,4(sp)
    9408:	d8000215 	stw	zero,8(sp)
    940c:	01000074 	movhi	r4,1
    9410:	21040804 	addi	r4,r4,4128
    9414:	000b883a 	mov	r5,zero
    9418:	01800084 	movi	r6,2
    941c:	d1e1c284 	addi	r7,gp,-30966
    9420:	000a9940 	call	a994 <alt_avalon_spi_command>
    9424:	e0bffb15 	stw	r2,-20(fp)
    9428:	00000c06 	br	945c <main+0xd40>
    942c:	d0a1c843 	ldbu	r2,-30943(gp)
    9430:	10800044 	addi	r2,r2,1
    9434:	d0a1c845 	stb	r2,-30943(gp)
    9438:	00000806 	br	945c <main+0xd40>
    943c:	d0a1c843 	ldbu	r2,-30943(gp)
    9440:	10800044 	addi	r2,r2,1
    9444:	d0a1c845 	stb	r2,-30943(gp)
    9448:	00000406 	br	945c <main+0xd40>
    944c:	d0a1c843 	ldbu	r2,-30943(gp)
    9450:	10800044 	addi	r2,r2,1
    9454:	d0a1c845 	stb	r2,-30943(gp)
    9458:	0001883a 	nop
    945c:	d0a1c203 	ldbu	r2,-30968(gp)
    9460:	10800044 	addi	r2,r2,1
    9464:	d0a1c205 	stb	r2,-30968(gp)
    9468:	d0a00117 	ldw	r2,-32764(gp)
    946c:	10800083 	ldbu	r2,2(r2)
    9470:	d0e1c203 	ldbu	r3,-30968(gp)
    9474:	10803fcc 	andi	r2,r2,255
    9478:	18c03fcc 	andi	r3,r3,255
    947c:	18bfac36 	bltu	r3,r2,9330 <_gp+0xffff4c38>
    9480:	d0a1c843 	ldbu	r2,-30943(gp)
    9484:	10803fcc 	andi	r2,r2,255
    9488:	10000426 	beq	r2,zero,949c <main+0xd80>
    948c:	d0a00017 	ldw	r2,-32768(gp)
    9490:	00c00144 	movi	r3,5
    9494:	10c00045 	stb	r3,1(r2)
    9498:	00027306 	br	9e68 <main+0x174c>
    949c:	d0a00017 	ldw	r2,-32768(gp)
    94a0:	00c00044 	movi	r3,1
    94a4:	10c00045 	stb	r3,1(r2)
    94a8:	00026f06 	br	9e68 <main+0x174c>
    94ac:	d0a00117 	ldw	r2,-32764(gp)
    94b0:	10800243 	ldbu	r2,9(r2)
    94b4:	10803fcc 	andi	r2,r2,255
    94b8:	1006963a 	slli	r3,r2,24
    94bc:	d0a00117 	ldw	r2,-32764(gp)
    94c0:	10800283 	ldbu	r2,10(r2)
    94c4:	10803fcc 	andi	r2,r2,255
    94c8:	1004943a 	slli	r2,r2,16
    94cc:	1886b03a 	or	r3,r3,r2
    94d0:	d0a00117 	ldw	r2,-32764(gp)
    94d4:	108002c3 	ldbu	r2,11(r2)
    94d8:	10803fcc 	andi	r2,r2,255
    94dc:	1004923a 	slli	r2,r2,8
    94e0:	1886b03a 	or	r3,r3,r2
    94e4:	d0a00117 	ldw	r2,-32764(gp)
    94e8:	10800303 	ldbu	r2,12(r2)
    94ec:	10803fcc 	andi	r2,r2,255
    94f0:	1884b03a 	or	r2,r3,r2
    94f4:	d0a1c715 	stw	r2,-30948(gp)
    94f8:	d0a00117 	ldw	r2,-32764(gp)
    94fc:	10800343 	ldbu	r2,13(r2)
    9500:	d0a1c245 	stb	r2,-30967(gp)
    9504:	d0a00117 	ldw	r2,-32764(gp)
    9508:	10800203 	ldbu	r2,8(r2)
    950c:	10803fcc 	andi	r2,r2,255
    9510:	10c00060 	cmpeqi	r3,r2,1
    9514:	1800071e 	bne	r3,zero,9534 <main+0xe18>
    9518:	10c000a0 	cmpeqi	r3,r2,2
    951c:	18009e1e 	bne	r3,zero,9798 <main+0x107c>
    9520:	1000a11e 	bne	r2,zero,97a8 <main+0x108c>
    9524:	d0a00017 	ldw	r2,-32768(gp)
    9528:	00c00144 	movi	r3,5
    952c:	10c00045 	stb	r3,1(r2)
    9530:	0000a106 	br	97b8 <main+0x109c>
    9534:	d0a1c717 	ldw	r2,-30948(gp)
    9538:	1000041e 	bne	r2,zero,954c <main+0xe30>
    953c:	d021be15 	stw	zero,-30984(gp)
    9540:	d021bf15 	stw	zero,-30980(gp)
    9544:	d021c115 	stw	zero,-30972(gp)
    9548:	d021c915 	stw	zero,-30940(gp)
    954c:	d0a1bf17 	ldw	r2,-30980(gp)
    9550:	00c04004 	movi	r3,256
    9554:	1885c83a 	sub	r2,r3,r2
    9558:	d0a1c015 	stw	r2,-30976(gp)
    955c:	d0a1c017 	ldw	r2,-30976(gp)
    9560:	0080280e 	bge	zero,r2,9604 <main+0xee8>
    9564:	d0a1c243 	ldbu	r2,-30967(gp)
    9568:	10c03fcc 	andi	r3,r2,255
    956c:	d0a1c017 	ldw	r2,-30976(gp)
    9570:	1880040e 	bge	r3,r2,9584 <main+0xe68>
    9574:	d0a1c243 	ldbu	r2,-30967(gp)
    9578:	10803fcc 	andi	r2,r2,255
    957c:	d0a1c115 	stw	r2,-30972(gp)
    9580:	00000206 	br	958c <main+0xe70>
    9584:	d0a1c017 	ldw	r2,-30976(gp)
    9588:	d0a1c115 	stw	r2,-30972(gp)
    958c:	d0e1bf17 	ldw	r3,-30980(gp)
    9590:	00800074 	movhi	r2,1
    9594:	10b39f04 	addi	r2,r2,-12676
    9598:	1887883a 	add	r3,r3,r2
    959c:	d0a00117 	ldw	r2,-32764(gp)
    95a0:	10800804 	addi	r2,r2,32
    95a4:	d121c117 	ldw	r4,-30972(gp)
    95a8:	200d883a 	mov	r6,r4
    95ac:	1809883a 	mov	r4,r3
    95b0:	100b883a 	mov	r5,r2
    95b4:	000a5000 	call	a500 <memcpy>
    95b8:	d0e1bf17 	ldw	r3,-30980(gp)
    95bc:	d0a1c117 	ldw	r2,-30972(gp)
    95c0:	1885883a 	add	r2,r3,r2
    95c4:	d0a1bf15 	stw	r2,-30980(gp)
    95c8:	d0a1bf17 	ldw	r2,-30980(gp)
    95cc:	00c04004 	movi	r3,256
    95d0:	1885c83a 	sub	r2,r3,r2
    95d4:	d0a1c015 	stw	r2,-30976(gp)
    95d8:	d0a1c243 	ldbu	r2,-30967(gp)
    95dc:	10803fcc 	andi	r2,r2,255
    95e0:	1000041e 	bne	r2,zero,95f4 <main+0xed8>
    95e4:	d0a1bf17 	ldw	r2,-30980(gp)
    95e8:	0080020e 	bge	zero,r2,95f4 <main+0xed8>
    95ec:	00804004 	movi	r2,256
    95f0:	d0a1bf15 	stw	r2,-30980(gp)
    95f4:	d0a1bf17 	ldw	r2,-30980(gp)
    95f8:	00c04004 	movi	r3,256
    95fc:	1885c83a 	sub	r2,r3,r2
    9600:	d0a1c015 	stw	r2,-30976(gp)
    9604:	d0a1bf17 	ldw	r2,-30980(gp)
    9608:	10804010 	cmplti	r2,r2,256
    960c:	10002c1e 	bne	r2,zero,96c0 <main+0xfa4>
    9610:	e03ffa45 	stb	zero,-23(fp)
    9614:	d0a1be17 	ldw	r2,-30984(gp)
    9618:	10803fcc 	andi	r2,r2,255
    961c:	10000c1e 	bne	r2,zero,9650 <main+0xf34>
    9620:	d0a1be17 	ldw	r2,-30984(gp)
    9624:	1000010e 	bge	r2,zero,962c <main+0xf10>
    9628:	10803fc4 	addi	r2,r2,255
    962c:	1005d23a 	srai	r2,r2,8
    9630:	10803fcc 	andi	r2,r2,255
    9634:	01000074 	movhi	r4,1
    9638:	21040004 	addi	r4,r4,4096
    963c:	000b883a 	mov	r5,zero
    9640:	01800044 	movi	r6,1
    9644:	100f883a 	mov	r7,r2
    9648:	000a23c0 	call	a23c <FlashSpiEraseSector>
    964c:	e0bffa45 	stb	r2,-23(fp)
    9650:	d0a1be17 	ldw	r2,-30984(gp)
    9654:	1007883a 	mov	r3,r2
    9658:	00800074 	movhi	r2,1
    965c:	10b39f04 	addi	r2,r2,-12676
    9660:	d8800015 	stw	r2,0(sp)
    9664:	d8000115 	stw	zero,4(sp)
    9668:	01000074 	movhi	r4,1
    966c:	21040004 	addi	r4,r4,4096
    9670:	000b883a 	mov	r5,zero
    9674:	180d883a 	mov	r6,r3
    9678:	01c04004 	movi	r7,256
    967c:	0009f800 	call	9f80 <FlashSpiTransfer>
    9680:	1007883a 	mov	r3,r2
    9684:	e0bffa43 	ldbu	r2,-23(fp)
    9688:	1885883a 	add	r2,r3,r2
    968c:	e0bffa45 	stb	r2,-23(fp)
    9690:	e0bffa43 	ldbu	r2,-23(fp)
    9694:	10000426 	beq	r2,zero,96a8 <main+0xf8c>
    9698:	d0a00017 	ldw	r2,-32768(gp)
    969c:	00c00144 	movi	r3,5
    96a0:	10c00045 	stb	r3,1(r2)
    96a4:	00004406 	br	97b8 <main+0x109c>
    96a8:	d0a1be17 	ldw	r2,-30984(gp)
    96ac:	10800044 	addi	r2,r2,1
    96b0:	d0a1be15 	stw	r2,-30984(gp)
    96b4:	d021bf15 	stw	zero,-30980(gp)
    96b8:	00804004 	movi	r2,256
    96bc:	d0a1c015 	stw	r2,-30976(gp)
    96c0:	d0a1c243 	ldbu	r2,-30967(gp)
    96c4:	10803fcc 	andi	r2,r2,255
    96c8:	d0e1c117 	ldw	r3,-30972(gp)
    96cc:	1880180e 	bge	r3,r2,9730 <main+0x1014>
    96d0:	d0a1c243 	ldbu	r2,-30967(gp)
    96d4:	10c03fcc 	andi	r3,r2,255
    96d8:	d0a1c117 	ldw	r2,-30972(gp)
    96dc:	1885c83a 	sub	r2,r3,r2
    96e0:	d0a1c115 	stw	r2,-30972(gp)
    96e4:	d0e1bf17 	ldw	r3,-30980(gp)
    96e8:	00800074 	movhi	r2,1
    96ec:	10b39f04 	addi	r2,r2,-12676
    96f0:	1889883a 	add	r4,r3,r2
    96f4:	d0a00117 	ldw	r2,-32764(gp)
    96f8:	10c00804 	addi	r3,r2,32
    96fc:	d0a1c243 	ldbu	r2,-30967(gp)
    9700:	10803fcc 	andi	r2,r2,255
    9704:	180b883a 	mov	r5,r3
    9708:	100d883a 	mov	r6,r2
    970c:	000a5000 	call	a500 <memcpy>
    9710:	d0e1bf17 	ldw	r3,-30980(gp)
    9714:	d0a1c117 	ldw	r2,-30972(gp)
    9718:	1885883a 	add	r2,r3,r2
    971c:	d0a1bf15 	stw	r2,-30980(gp)
    9720:	d0a1bf17 	ldw	r2,-30980(gp)
    9724:	00c04004 	movi	r3,256
    9728:	1885c83a 	sub	r2,r3,r2
    972c:	d0a1c015 	stw	r2,-30976(gp)
    9730:	d0a1c243 	ldbu	r2,-30967(gp)
    9734:	10c03fcc 	andi	r3,r2,255
    9738:	d0a1c917 	ldw	r2,-30940(gp)
    973c:	1885883a 	add	r2,r3,r2
    9740:	d0a1c915 	stw	r2,-30940(gp)
    9744:	d0e1c917 	ldw	r3,-30940(gp)
    9748:	00800ab4 	movhi	r2,42
    974c:	10bee044 	addi	r2,r2,-1151
    9750:	10c00d36 	bltu	r2,r3,9788 <main+0x106c>
    9754:	d0a1c243 	ldbu	r2,-30967(gp)
    9758:	10803fcc 	andi	r2,r2,255
    975c:	1000061e 	bne	r2,zero,9778 <main+0x105c>
    9760:	d0a00317 	ldw	r2,-32756(gp)
    9764:	d0e1c917 	ldw	r3,-30940(gp)
    9768:	10c00015 	stw	r3,0(r2)
    976c:	d0a00317 	ldw	r2,-32756(gp)
    9770:	00c00044 	movi	r3,1
    9774:	10c00105 	stb	r3,4(r2)
    9778:	d0a00017 	ldw	r2,-32768(gp)
    977c:	00c00044 	movi	r3,1
    9780:	10c00045 	stb	r3,1(r2)
    9784:	00000c06 	br	97b8 <main+0x109c>
    9788:	d0a00017 	ldw	r2,-32768(gp)
    978c:	00c00144 	movi	r3,5
    9790:	10c00045 	stb	r3,1(r2)
    9794:	00000806 	br	97b8 <main+0x109c>
    9798:	d0a00017 	ldw	r2,-32768(gp)
    979c:	00c00144 	movi	r3,5
    97a0:	10c00045 	stb	r3,1(r2)
    97a4:	00000406 	br	97b8 <main+0x109c>
    97a8:	d0a00017 	ldw	r2,-32768(gp)
    97ac:	00c00044 	movi	r3,1
    97b0:	10c00045 	stb	r3,1(r2)
    97b4:	0001883a 	nop
    97b8:	0001ab06 	br	9e68 <main+0x174c>
    97bc:	01000084 	movi	r4,2
    97c0:	00084e00 	call	84e0 <Check_many_blocks>
    97c4:	10803fcc 	andi	r2,r2,255
    97c8:	10000126 	beq	r2,zero,97d0 <main+0x10b4>
    97cc:	0001a606 	br	9e68 <main+0x174c>
    97d0:	d021c205 	stb	zero,-30968(gp)
    97d4:	00002f06 	br	9894 <main+0x1178>
    97d8:	01000074 	movhi	r4,1
    97dc:	21042804 	addi	r4,r4,4256
    97e0:	01401804 	movi	r5,96
    97e4:	000d883a 	mov	r6,zero
    97e8:	000831c0 	call	831c <I2C_start>
    97ec:	1007883a 	mov	r3,r2
    97f0:	d0a1c843 	ldbu	r2,-30943(gp)
    97f4:	1885883a 	add	r2,r3,r2
    97f8:	d0a1c845 	stb	r2,-30943(gp)
    97fc:	d0e00117 	ldw	r3,-32764(gp)
    9800:	d0a1c203 	ldbu	r2,-30968(gp)
    9804:	10803fcc 	andi	r2,r2,255
    9808:	1085883a 	add	r2,r2,r2
    980c:	1885883a 	add	r2,r3,r2
    9810:	10800204 	addi	r2,r2,8
    9814:	10800003 	ldbu	r2,0(r2)
    9818:	10803fcc 	andi	r2,r2,255
    981c:	01000074 	movhi	r4,1
    9820:	21042804 	addi	r4,r4,4256
    9824:	100b883a 	mov	r5,r2
    9828:	000d883a 	mov	r6,zero
    982c:	00084340 	call	8434 <I2C_write>
    9830:	1007883a 	mov	r3,r2
    9834:	d0a1c843 	ldbu	r2,-30943(gp)
    9838:	1885883a 	add	r2,r3,r2
    983c:	d0a1c845 	stb	r2,-30943(gp)
    9840:	d0e00117 	ldw	r3,-32764(gp)
    9844:	d0a1c203 	ldbu	r2,-30968(gp)
    9848:	10803fcc 	andi	r2,r2,255
    984c:	1085883a 	add	r2,r2,r2
    9850:	10800044 	addi	r2,r2,1
    9854:	1885883a 	add	r2,r3,r2
    9858:	10800204 	addi	r2,r2,8
    985c:	10800003 	ldbu	r2,0(r2)
    9860:	10803fcc 	andi	r2,r2,255
    9864:	01000074 	movhi	r4,1
    9868:	21042804 	addi	r4,r4,4256
    986c:	100b883a 	mov	r5,r2
    9870:	01800044 	movi	r6,1
    9874:	00084340 	call	8434 <I2C_write>
    9878:	1007883a 	mov	r3,r2
    987c:	d0a1c843 	ldbu	r2,-30943(gp)
    9880:	1885883a 	add	r2,r3,r2
    9884:	d0a1c845 	stb	r2,-30943(gp)
    9888:	d0a1c203 	ldbu	r2,-30968(gp)
    988c:	10800044 	addi	r2,r2,1
    9890:	d0a1c205 	stb	r2,-30968(gp)
    9894:	d0a00117 	ldw	r2,-32764(gp)
    9898:	10800083 	ldbu	r2,2(r2)
    989c:	d0e1c203 	ldbu	r3,-30968(gp)
    98a0:	10803fcc 	andi	r2,r2,255
    98a4:	18c03fcc 	andi	r3,r3,255
    98a8:	18bfcb36 	bltu	r3,r2,97d8 <_gp+0xffff50e0>
    98ac:	d0a1c843 	ldbu	r2,-30943(gp)
    98b0:	10803fcc 	andi	r2,r2,255
    98b4:	10000426 	beq	r2,zero,98c8 <main+0x11ac>
    98b8:	d0a00017 	ldw	r2,-32768(gp)
    98bc:	00c00144 	movi	r3,5
    98c0:	10c00045 	stb	r3,1(r2)
    98c4:	00016806 	br	9e68 <main+0x174c>
    98c8:	d0a00017 	ldw	r2,-32768(gp)
    98cc:	00c00044 	movi	r3,1
    98d0:	10c00045 	stb	r3,1(r2)
    98d4:	00016406 	br	9e68 <main+0x174c>
    98d8:	01000084 	movi	r4,2
    98dc:	00084e00 	call	84e0 <Check_many_blocks>
    98e0:	10803fcc 	andi	r2,r2,255
    98e4:	10000126 	beq	r2,zero,98ec <main+0x11d0>
    98e8:	00015f06 	br	9e68 <main+0x174c>
    98ec:	d021c205 	stb	zero,-30968(gp)
    98f0:	00004006 	br	99f4 <main+0x12d8>
    98f4:	01000074 	movhi	r4,1
    98f8:	21042804 	addi	r4,r4,4256
    98fc:	01401804 	movi	r5,96
    9900:	000d883a 	mov	r6,zero
    9904:	000831c0 	call	831c <I2C_start>
    9908:	1007883a 	mov	r3,r2
    990c:	d0a1c843 	ldbu	r2,-30943(gp)
    9910:	1885883a 	add	r2,r3,r2
    9914:	d0a1c845 	stb	r2,-30943(gp)
    9918:	d0e00117 	ldw	r3,-32764(gp)
    991c:	d0a1c203 	ldbu	r2,-30968(gp)
    9920:	10803fcc 	andi	r2,r2,255
    9924:	1885883a 	add	r2,r3,r2
    9928:	10800204 	addi	r2,r2,8
    992c:	10800003 	ldbu	r2,0(r2)
    9930:	10803fcc 	andi	r2,r2,255
    9934:	01000074 	movhi	r4,1
    9938:	21042804 	addi	r4,r4,4256
    993c:	100b883a 	mov	r5,r2
    9940:	01800044 	movi	r6,1
    9944:	00084340 	call	8434 <I2C_write>
    9948:	1007883a 	mov	r3,r2
    994c:	d0a1c843 	ldbu	r2,-30943(gp)
    9950:	1885883a 	add	r2,r3,r2
    9954:	d0a1c845 	stb	r2,-30943(gp)
    9958:	01000074 	movhi	r4,1
    995c:	21042804 	addi	r4,r4,4256
    9960:	01401804 	movi	r5,96
    9964:	01800044 	movi	r6,1
    9968:	000831c0 	call	831c <I2C_start>
    996c:	1007883a 	mov	r3,r2
    9970:	d0a1c843 	ldbu	r2,-30943(gp)
    9974:	1885883a 	add	r2,r3,r2
    9978:	d0a1c845 	stb	r2,-30943(gp)
    997c:	d1200017 	ldw	r4,-32768(gp)
    9980:	d0a1c203 	ldbu	r2,-30968(gp)
    9984:	10803fcc 	andi	r2,r2,255
    9988:	1085883a 	add	r2,r2,r2
    998c:	100b883a 	mov	r5,r2
    9990:	d0e00117 	ldw	r3,-32764(gp)
    9994:	d0a1c203 	ldbu	r2,-30968(gp)
    9998:	10803fcc 	andi	r2,r2,255
    999c:	1885883a 	add	r2,r3,r2
    99a0:	10800204 	addi	r2,r2,8
    99a4:	10c00003 	ldbu	r3,0(r2)
    99a8:	2145883a 	add	r2,r4,r5
    99ac:	10800204 	addi	r2,r2,8
    99b0:	10c00005 	stb	r3,0(r2)
    99b4:	d4600017 	ldw	r17,-32768(gp)
    99b8:	d0a1c203 	ldbu	r2,-30968(gp)
    99bc:	10803fcc 	andi	r2,r2,255
    99c0:	1085883a 	add	r2,r2,r2
    99c4:	14000044 	addi	r16,r2,1
    99c8:	01000074 	movhi	r4,1
    99cc:	21042804 	addi	r4,r4,4256
    99d0:	01400044 	movi	r5,1
    99d4:	00083b80 	call	83b8 <I2C_read>
    99d8:	1007883a 	mov	r3,r2
    99dc:	8c05883a 	add	r2,r17,r16
    99e0:	10800204 	addi	r2,r2,8
    99e4:	10c00005 	stb	r3,0(r2)
    99e8:	d0a1c203 	ldbu	r2,-30968(gp)
    99ec:	10800044 	addi	r2,r2,1
    99f0:	d0a1c205 	stb	r2,-30968(gp)
    99f4:	d0a00117 	ldw	r2,-32764(gp)
    99f8:	10800083 	ldbu	r2,2(r2)
    99fc:	d0e1c203 	ldbu	r3,-30968(gp)
    9a00:	10803fcc 	andi	r2,r2,255
    9a04:	18c03fcc 	andi	r3,r3,255
    9a08:	18bfba36 	bltu	r3,r2,98f4 <_gp+0xffff51fc>
    9a0c:	d0a1c843 	ldbu	r2,-30943(gp)
    9a10:	10803fcc 	andi	r2,r2,255
    9a14:	10000426 	beq	r2,zero,9a28 <main+0x130c>
    9a18:	d0a00017 	ldw	r2,-32768(gp)
    9a1c:	00c00144 	movi	r3,5
    9a20:	10c00045 	stb	r3,1(r2)
    9a24:	00011006 	br	9e68 <main+0x174c>
    9a28:	d0a00017 	ldw	r2,-32768(gp)
    9a2c:	00c00044 	movi	r3,1
    9a30:	10c00045 	stb	r3,1(r2)
    9a34:	00010c06 	br	9e68 <main+0x174c>
    9a38:	d0a00117 	ldw	r2,-32764(gp)
    9a3c:	10800243 	ldbu	r2,9(r2)
    9a40:	10803fcc 	andi	r2,r2,255
    9a44:	d0a1c715 	stw	r2,-30948(gp)
    9a48:	d0a1c717 	ldw	r2,-30948(gp)
    9a4c:	10000826 	beq	r2,zero,9a70 <main+0x1354>
    9a50:	d0a1c717 	ldw	r2,-30948(gp)
    9a54:	10ffffc4 	addi	r3,r2,-1
    9a58:	d0a1c617 	ldw	r2,-30952(gp)
    9a5c:	18800426 	beq	r3,r2,9a70 <main+0x1354>
    9a60:	d0a00017 	ldw	r2,-32768(gp)
    9a64:	00c00184 	movi	r3,6
    9a68:	10c00045 	stb	r3,1(r2)
    9a6c:	0000fe06 	br	9e68 <main+0x174c>
    9a70:	d0a1c717 	ldw	r2,-30948(gp)
    9a74:	10005d1e 	bne	r2,zero,9bec <main+0x14d0>
    9a78:	00bfe004 	movi	r2,-128
    9a7c:	d0a1c345 	stb	r2,-30963(gp)
    9a80:	d0a1c384 	addi	r2,gp,-30962
    9a84:	00c00084 	movi	r3,2
    9a88:	10c00005 	stb	r3,0(r2)
    9a8c:	d0a1c3c4 	addi	r2,gp,-30961
    9a90:	10000005 	stb	zero,0(r2)
    9a94:	d0a1c404 	addi	r2,gp,-30960
    9a98:	10000005 	stb	zero,0(r2)
    9a9c:	d8000015 	stw	zero,0(sp)
    9aa0:	d8000115 	stw	zero,4(sp)
    9aa4:	d8000215 	stw	zero,8(sp)
    9aa8:	01000074 	movhi	r4,1
    9aac:	21041004 	addi	r4,r4,4160
    9ab0:	000b883a 	mov	r5,zero
    9ab4:	01800104 	movi	r6,4
    9ab8:	d1e1c344 	addi	r7,gp,-30963
    9abc:	000a9940 	call	a994 <alt_avalon_spi_command>
    9ac0:	e0bffb15 	stw	r2,-20(fp)
    9ac4:	00bfe004 	movi	r2,-128
    9ac8:	d0a1c345 	stb	r2,-30963(gp)
    9acc:	d0a1c384 	addi	r2,gp,-30962
    9ad0:	00c00084 	movi	r3,2
    9ad4:	10c00005 	stb	r3,0(r2)
    9ad8:	d0a1c3c4 	addi	r2,gp,-30961
    9adc:	10000005 	stb	zero,0(r2)
    9ae0:	d0a00117 	ldw	r2,-32764(gp)
    9ae4:	10800203 	ldbu	r2,8(r2)
    9ae8:	10803fcc 	andi	r2,r2,255
    9aec:	10c000a0 	cmpeqi	r3,r2,2
    9af0:	1800121e 	bne	r3,zero,9b3c <main+0x1420>
    9af4:	10c000e0 	cmpeqi	r3,r2,3
    9af8:	18001e1e 	bne	r3,zero,9b74 <main+0x1458>
    9afc:	10800060 	cmpeqi	r2,r2,1
    9b00:	10003a26 	beq	r2,zero,9bec <main+0x14d0>
    9b04:	d0a1c404 	addi	r2,gp,-30960
    9b08:	00c00044 	movi	r3,1
    9b0c:	10c00005 	stb	r3,0(r2)
    9b10:	d8000015 	stw	zero,0(sp)
    9b14:	d8000115 	stw	zero,4(sp)
    9b18:	d8000215 	stw	zero,8(sp)
    9b1c:	01000074 	movhi	r4,1
    9b20:	21041004 	addi	r4,r4,4160
    9b24:	000b883a 	mov	r5,zero
    9b28:	01800104 	movi	r6,4
    9b2c:	d1e1c344 	addi	r7,gp,-30963
    9b30:	000a9940 	call	a994 <alt_avalon_spi_command>
    9b34:	e0bffb15 	stw	r2,-20(fp)
    9b38:	00002c06 	br	9bec <main+0x14d0>
    9b3c:	d0a1c404 	addi	r2,gp,-30960
    9b40:	00c00084 	movi	r3,2
    9b44:	10c00005 	stb	r3,0(r2)
    9b48:	d8000015 	stw	zero,0(sp)
    9b4c:	d8000115 	stw	zero,4(sp)
    9b50:	d8000215 	stw	zero,8(sp)
    9b54:	01000074 	movhi	r4,1
    9b58:	21041004 	addi	r4,r4,4160
    9b5c:	000b883a 	mov	r5,zero
    9b60:	01800104 	movi	r6,4
    9b64:	d1e1c344 	addi	r7,gp,-30963
    9b68:	000a9940 	call	a994 <alt_avalon_spi_command>
    9b6c:	e0bffb15 	stw	r2,-20(fp)
    9b70:	00001e06 	br	9bec <main+0x14d0>
    9b74:	d0a1c404 	addi	r2,gp,-30960
    9b78:	00c000c4 	movi	r3,3
    9b7c:	10c00005 	stb	r3,0(r2)
    9b80:	d8000015 	stw	zero,0(sp)
    9b84:	d8000115 	stw	zero,4(sp)
    9b88:	d8000215 	stw	zero,8(sp)
    9b8c:	01000074 	movhi	r4,1
    9b90:	21041004 	addi	r4,r4,4160
    9b94:	000b883a 	mov	r5,zero
    9b98:	01800104 	movi	r6,4
    9b9c:	d1e1c344 	addi	r7,gp,-30963
    9ba0:	000a9940 	call	a994 <alt_avalon_spi_command>
    9ba4:	e0bffb15 	stw	r2,-20(fp)
    9ba8:	d021c345 	stb	zero,-30963(gp)
    9bac:	d0a1c384 	addi	r2,gp,-30962
    9bb0:	00c000c4 	movi	r3,3
    9bb4:	10c00005 	stb	r3,0(r2)
    9bb8:	00800084 	movi	r2,2
    9bbc:	d8800015 	stw	r2,0(sp)
    9bc0:	d0a1c344 	addi	r2,gp,-30963
    9bc4:	d8800115 	stw	r2,4(sp)
    9bc8:	d8000215 	stw	zero,8(sp)
    9bcc:	01000074 	movhi	r4,1
    9bd0:	21041004 	addi	r4,r4,4160
    9bd4:	000b883a 	mov	r5,zero
    9bd8:	01800084 	movi	r6,2
    9bdc:	d1e1c344 	addi	r7,gp,-30963
    9be0:	000a9940 	call	a994 <alt_avalon_spi_command>
    9be4:	e0bffb15 	stw	r2,-20(fp)
    9be8:	00009006 	br	9e2c <main+0x1710>
    9bec:	d021c305 	stb	zero,-30964(gp)
    9bf0:	00001b06 	br	9c60 <main+0x1544>
    9bf4:	d021c345 	stb	zero,-30963(gp)
    9bf8:	d0a1c384 	addi	r2,gp,-30962
    9bfc:	00c000c4 	movi	r3,3
    9c00:	10c00005 	stb	r3,0(r2)
    9c04:	00800084 	movi	r2,2
    9c08:	d8800015 	stw	r2,0(sp)
    9c0c:	d0a1c344 	addi	r2,gp,-30963
    9c10:	d8800115 	stw	r2,4(sp)
    9c14:	d8000215 	stw	zero,8(sp)
    9c18:	01000074 	movhi	r4,1
    9c1c:	21041004 	addi	r4,r4,4160
    9c20:	000b883a 	mov	r5,zero
    9c24:	01800084 	movi	r6,2
    9c28:	d1e1c344 	addi	r7,gp,-30963
    9c2c:	000a9940 	call	a994 <alt_avalon_spi_command>
    9c30:	e0bffb15 	stw	r2,-20(fp)
    9c34:	d0a1c384 	addi	r2,gp,-30962
    9c38:	10800003 	ldbu	r2,0(r2)
    9c3c:	10803fcc 	andi	r2,r2,255
    9c40:	1080004c 	andi	r2,r2,1
    9c44:	10000126 	beq	r2,zero,9c4c <main+0x1530>
    9c48:	00000906 	br	9c70 <main+0x1554>
    9c4c:	d0a1c303 	ldbu	r2,-30964(gp)
    9c50:	10800044 	addi	r2,r2,1
    9c54:	d0a1c305 	stb	r2,-30964(gp)
    9c58:	01000784 	movi	r4,30
    9c5c:	000a89c0 	call	a89c <usleep>
    9c60:	d0a1c303 	ldbu	r2,-30964(gp)
    9c64:	10803fcc 	andi	r2,r2,255
    9c68:	108007b0 	cmpltui	r2,r2,30
    9c6c:	103fe11e 	bne	r2,zero,9bf4 <_gp+0xffff54fc>
    9c70:	d021c205 	stb	zero,-30968(gp)
    9c74:	00001e06 	br	9cf0 <main+0x15d4>
    9c78:	00bfe004 	movi	r2,-128
    9c7c:	d0a1c345 	stb	r2,-30963(gp)
    9c80:	d0a1c384 	addi	r2,gp,-30962
    9c84:	00c00104 	movi	r3,4
    9c88:	10c00005 	stb	r3,0(r2)
    9c8c:	d0a1c3c4 	addi	r2,gp,-30961
    9c90:	10000005 	stb	zero,0(r2)
    9c94:	d0e00117 	ldw	r3,-32764(gp)
    9c98:	d0a1c203 	ldbu	r2,-30968(gp)
    9c9c:	10803fcc 	andi	r2,r2,255
    9ca0:	10800084 	addi	r2,r2,2
    9ca4:	1885883a 	add	r2,r3,r2
    9ca8:	10800204 	addi	r2,r2,8
    9cac:	10c00003 	ldbu	r3,0(r2)
    9cb0:	d0a1c404 	addi	r2,gp,-30960
    9cb4:	10c00005 	stb	r3,0(r2)
    9cb8:	d8000015 	stw	zero,0(sp)
    9cbc:	d8000115 	stw	zero,4(sp)
    9cc0:	d8000215 	stw	zero,8(sp)
    9cc4:	01000074 	movhi	r4,1
    9cc8:	21041004 	addi	r4,r4,4160
    9ccc:	000b883a 	mov	r5,zero
    9cd0:	01800104 	movi	r6,4
    9cd4:	d1e1c344 	addi	r7,gp,-30963
    9cd8:	000a9940 	call	a994 <alt_avalon_spi_command>
    9cdc:	e0bffb15 	stw	r2,-20(fp)
    9ce0:	d021c305 	stb	zero,-30964(gp)
    9ce4:	d0a1c203 	ldbu	r2,-30968(gp)
    9ce8:	10800044 	addi	r2,r2,1
    9cec:	d0a1c205 	stb	r2,-30968(gp)
    9cf0:	d0a1c203 	ldbu	r2,-30968(gp)
    9cf4:	10803fcc 	andi	r2,r2,255
    9cf8:	10800830 	cmpltui	r2,r2,32
    9cfc:	103fde1e 	bne	r2,zero,9c78 <_gp+0xffff5580>
    9d00:	d021c305 	stb	zero,-30964(gp)
    9d04:	d021c345 	stb	zero,-30963(gp)
    9d08:	d0a1c384 	addi	r2,gp,-30962
    9d0c:	00c000c4 	movi	r3,3
    9d10:	10c00005 	stb	r3,0(r2)
    9d14:	00800084 	movi	r2,2
    9d18:	d8800015 	stw	r2,0(sp)
    9d1c:	d0a1c344 	addi	r2,gp,-30963
    9d20:	d8800115 	stw	r2,4(sp)
    9d24:	d8000215 	stw	zero,8(sp)
    9d28:	01000074 	movhi	r4,1
    9d2c:	21041004 	addi	r4,r4,4160
    9d30:	000b883a 	mov	r5,zero
    9d34:	01800084 	movi	r6,2
    9d38:	d1e1c344 	addi	r7,gp,-30963
    9d3c:	000a9940 	call	a994 <alt_avalon_spi_command>
    9d40:	e0bffb15 	stw	r2,-20(fp)
    9d44:	d0a1c384 	addi	r2,gp,-30962
    9d48:	10800003 	ldbu	r2,0(r2)
    9d4c:	10803fcc 	andi	r2,r2,255
    9d50:	1080004c 	andi	r2,r2,1
    9d54:	10000526 	beq	r2,zero,9d6c <main+0x1650>
    9d58:	0001883a 	nop
    9d5c:	d0a1c717 	ldw	r2,-30948(gp)
    9d60:	10803fd8 	cmpnei	r2,r2,255
    9d64:	10002f1e 	bne	r2,zero,9e24 <main+0x1708>
    9d68:	00000606 	br	9d84 <main+0x1668>
    9d6c:	d0a1c303 	ldbu	r2,-30964(gp)
    9d70:	10800044 	addi	r2,r2,1
    9d74:	d0a1c305 	stb	r2,-30964(gp)
    9d78:	01000784 	movi	r4,30
    9d7c:	000a89c0 	call	a89c <usleep>
    9d80:	003fe006 	br	9d04 <_gp+0xffff560c>
    9d84:	d021c305 	stb	zero,-30964(gp)
    9d88:	00001b06 	br	9df8 <main+0x16dc>
    9d8c:	d021c345 	stb	zero,-30963(gp)
    9d90:	d0a1c384 	addi	r2,gp,-30962
    9d94:	00c000c4 	movi	r3,3
    9d98:	10c00005 	stb	r3,0(r2)
    9d9c:	00800084 	movi	r2,2
    9da0:	d8800015 	stw	r2,0(sp)
    9da4:	d0a1c344 	addi	r2,gp,-30963
    9da8:	d8800115 	stw	r2,4(sp)
    9dac:	d8000215 	stw	zero,8(sp)
    9db0:	01000074 	movhi	r4,1
    9db4:	21041004 	addi	r4,r4,4160
    9db8:	000b883a 	mov	r5,zero
    9dbc:	01800084 	movi	r6,2
    9dc0:	d1e1c344 	addi	r7,gp,-30963
    9dc4:	000a9940 	call	a994 <alt_avalon_spi_command>
    9dc8:	e0bffb15 	stw	r2,-20(fp)
    9dcc:	d0a1c384 	addi	r2,gp,-30962
    9dd0:	10800003 	ldbu	r2,0(r2)
    9dd4:	10803fcc 	andi	r2,r2,255
    9dd8:	1080100c 	andi	r2,r2,64
    9ddc:	10000126 	beq	r2,zero,9de4 <main+0x16c8>
    9de0:	00000906 	br	9e08 <main+0x16ec>
    9de4:	d0a1c303 	ldbu	r2,-30964(gp)
    9de8:	10800044 	addi	r2,r2,1
    9dec:	d0a1c305 	stb	r2,-30964(gp)
    9df0:	01000784 	movi	r4,30
    9df4:	000a89c0 	call	a89c <usleep>
    9df8:	d0a1c303 	ldbu	r2,-30964(gp)
    9dfc:	10803fcc 	andi	r2,r2,255
    9e00:	108007b0 	cmpltui	r2,r2,30
    9e04:	103fe11e 	bne	r2,zero,9d8c <_gp+0xffff5694>
    9e08:	d0a1c303 	ldbu	r2,-30964(gp)
    9e0c:	10803fcc 	andi	r2,r2,255
    9e10:	10800798 	cmpnei	r2,r2,30
    9e14:	1000031e 	bne	r2,zero,9e24 <main+0x1708>
    9e18:	d0a1c843 	ldbu	r2,-30943(gp)
    9e1c:	10800044 	addi	r2,r2,1
    9e20:	d0a1c845 	stb	r2,-30943(gp)
    9e24:	d0a1c717 	ldw	r2,-30948(gp)
    9e28:	d0a1c615 	stw	r2,-30952(gp)
    9e2c:	d0a1c843 	ldbu	r2,-30943(gp)
    9e30:	10803fcc 	andi	r2,r2,255
    9e34:	10000426 	beq	r2,zero,9e48 <main+0x172c>
    9e38:	d0a00017 	ldw	r2,-32768(gp)
    9e3c:	00c00144 	movi	r3,5
    9e40:	10c00045 	stb	r3,1(r2)
    9e44:	00000806 	br	9e68 <main+0x174c>
    9e48:	d0a00017 	ldw	r2,-32768(gp)
    9e4c:	00c00044 	movi	r3,1
    9e50:	10c00045 	stb	r3,1(r2)
    9e54:	00000406 	br	9e68 <main+0x174c>
    9e58:	d0a00017 	ldw	r2,-32768(gp)
    9e5c:	00c00084 	movi	r3,2
    9e60:	10c00045 	stb	r3,1(r2)
    9e64:	0001883a 	nop
    9e68:	e03ffa05 	stb	zero,-24(fp)
    9e6c:	00000c06 	br	9ea0 <main+0x1784>
    9e70:	e0fffa07 	ldb	r3,-24(fp)
    9e74:	00800074 	movhi	r2,1
    9e78:	10b38f04 	addi	r2,r2,-12740
    9e7c:	10c5883a 	add	r2,r2,r3
    9e80:	10800003 	ldbu	r2,0(r2)
    9e84:	10c03fcc 	andi	r3,r2,255
    9e88:	00800074 	movhi	r2,1
    9e8c:	10843804 	addi	r2,r2,4320
    9e90:	10c00035 	stwio	r3,0(r2)
    9e94:	e0bffa03 	ldbu	r2,-24(fp)
    9e98:	10800044 	addi	r2,r2,1
    9e9c:	e0bffa05 	stb	r2,-24(fp)
    9ea0:	e0bffa07 	ldb	r2,-24(fp)
    9ea4:	10801010 	cmplti	r2,r2,64
    9ea8:	103ff11e 	bne	r2,zero,9e70 <_gp+0xffff5778>
    9eac:	003a6406 	br	8840 <_gp+0xffff4148>

00009eb0 <ReverseBitOrder>:
    9eb0:	defffd04 	addi	sp,sp,-12
    9eb4:	df000215 	stw	fp,8(sp)
    9eb8:	df000204 	addi	fp,sp,8
    9ebc:	2005883a 	mov	r2,r4
    9ec0:	e0bfff05 	stb	r2,-4(fp)
    9ec4:	e0bfff03 	ldbu	r2,-4(fp)
    9ec8:	e0bffe05 	stb	r2,-8(fp)
    9ecc:	e0bffe03 	ldbu	r2,-8(fp)
    9ed0:	1004d07a 	srli	r2,r2,1
    9ed4:	1080154c 	andi	r2,r2,85
    9ed8:	1007883a 	mov	r3,r2
    9edc:	e0bffe03 	ldbu	r2,-8(fp)
    9ee0:	1085883a 	add	r2,r2,r2
    9ee4:	1009883a 	mov	r4,r2
    9ee8:	00bfea84 	movi	r2,-86
    9eec:	2084703a 	and	r2,r4,r2
    9ef0:	1884b03a 	or	r2,r3,r2
    9ef4:	e0bffe05 	stb	r2,-8(fp)
    9ef8:	e0bffe03 	ldbu	r2,-8(fp)
    9efc:	1004d0ba 	srli	r2,r2,2
    9f00:	10800ccc 	andi	r2,r2,51
    9f04:	1007883a 	mov	r3,r2
    9f08:	e0bffe03 	ldbu	r2,-8(fp)
    9f0c:	1085883a 	add	r2,r2,r2
    9f10:	1085883a 	add	r2,r2,r2
    9f14:	1009883a 	mov	r4,r2
    9f18:	00bff304 	movi	r2,-52
    9f1c:	2084703a 	and	r2,r4,r2
    9f20:	1884b03a 	or	r2,r3,r2
    9f24:	e0bffe05 	stb	r2,-8(fp)
    9f28:	e0bffe03 	ldbu	r2,-8(fp)
    9f2c:	1004d13a 	srli	r2,r2,4
    9f30:	1007883a 	mov	r3,r2
    9f34:	e0bffe03 	ldbu	r2,-8(fp)
    9f38:	1004913a 	slli	r2,r2,4
    9f3c:	1884b03a 	or	r2,r3,r2
    9f40:	e0bffe05 	stb	r2,-8(fp)
    9f44:	e0bffe03 	ldbu	r2,-8(fp)
    9f48:	e037883a 	mov	sp,fp
    9f4c:	df000017 	ldw	fp,0(sp)
    9f50:	dec00104 	addi	sp,sp,4
    9f54:	f800283a 	ret

00009f58 <FlashSpiFastRead>:
    9f58:	defffe04 	addi	sp,sp,-8
    9f5c:	df000115 	stw	fp,4(sp)
    9f60:	df000104 	addi	fp,sp,4
    9f64:	e13fff15 	stw	r4,-4(fp)
    9f68:	e0bfff17 	ldw	r2,-4(fp)
    9f6c:	d0a1ca05 	stb	r2,-30936(gp)
    9f70:	e037883a 	mov	sp,fp
    9f74:	df000017 	ldw	fp,0(sp)
    9f78:	dec00104 	addi	sp,sp,4
    9f7c:	f800283a 	ret

00009f80 <FlashSpiTransfer>:
    9f80:	defff404 	addi	sp,sp,-48
    9f84:	dfc00b15 	stw	ra,44(sp)
    9f88:	df000a15 	stw	fp,40(sp)
    9f8c:	df000a04 	addi	fp,sp,40
    9f90:	e13ffc15 	stw	r4,-16(fp)
    9f94:	e17ffd15 	stw	r5,-12(fp)
    9f98:	e1bffe15 	stw	r6,-8(fp)
    9f9c:	3805883a 	mov	r2,r7
    9fa0:	e0bfff0d 	sth	r2,-4(fp)
    9fa4:	e03ff915 	stw	zero,-28(fp)
    9fa8:	e0bfff0b 	ldhu	r2,-4(fp)
    9fac:	1004d23a 	srli	r2,r2,8
    9fb0:	e0bffa0d 	sth	r2,-24(fp)
    9fb4:	e03ffa85 	stb	zero,-22(fp)
    9fb8:	00800044 	movi	r2,1
    9fbc:	d0a1ca05 	stb	r2,-30936(gp)
    9fc0:	e0bfff0b 	ldhu	r2,-4(fp)
    9fc4:	1000021e 	bne	r2,zero,9fd0 <FlashSpiTransfer+0x50>
    9fc8:	0005883a 	mov	r2,zero
    9fcc:	00006006 	br	a150 <FlashSpiTransfer+0x1d0>
    9fd0:	e0bfff0b 	ldhu	r2,-4(fp)
    9fd4:	10803fcc 	andi	r2,r2,255
    9fd8:	10bfffcc 	andi	r2,r2,65535
    9fdc:	10000226 	beq	r2,zero,9fe8 <FlashSpiTransfer+0x68>
    9fe0:	00800044 	movi	r2,1
    9fe4:	00005a06 	br	a150 <FlashSpiTransfer+0x1d0>
    9fe8:	e0bffe17 	ldw	r2,-8(fp)
    9fec:	1004923a 	slli	r2,r2,8
    9ff0:	e0bff915 	stw	r2,-28(fp)
    9ff4:	00005306 	br	a144 <FlashSpiTransfer+0x1c4>
    9ff8:	e0bff917 	ldw	r2,-28(fp)
    9ffc:	1004d43a 	srli	r2,r2,16
    a000:	10803fcc 	andi	r2,r2,255
    a004:	1009883a 	mov	r4,r2
    a008:	0009eb00 	call	9eb0 <ReverseBitOrder>
    a00c:	e0bffb05 	stb	r2,-20(fp)
    a010:	e0bff917 	ldw	r2,-28(fp)
    a014:	1004d23a 	srli	r2,r2,8
    a018:	10803fcc 	andi	r2,r2,255
    a01c:	1009883a 	mov	r4,r2
    a020:	0009eb00 	call	9eb0 <ReverseBitOrder>
    a024:	e0bffb45 	stb	r2,-19(fp)
    a028:	e0bff917 	ldw	r2,-28(fp)
    a02c:	10803fcc 	andi	r2,r2,255
    a030:	1009883a 	mov	r4,r2
    a034:	0009eb00 	call	9eb0 <ReverseBitOrder>
    a038:	e0bffb85 	stb	r2,-18(fp)
    a03c:	e0800317 	ldw	r2,12(fp)
    a040:	10001b26 	beq	r2,zero,a0b0 <FlashSpiTransfer+0x130>
    a044:	00bff004 	movi	r2,-64
    a048:	e0bffac5 	stb	r2,-21(fp)
    a04c:	d0a1ca03 	ldbu	r2,-30936(gp)
    a050:	10803fcc 	andi	r2,r2,255
    a054:	1080201c 	xori	r2,r2,128
    a058:	10bfe004 	addi	r2,r2,-128
    a05c:	1000081e 	bne	r2,zero,a080 <FlashSpiTransfer+0x100>
    a060:	e13ffc17 	ldw	r4,-16(fp)
    a064:	e17ffd17 	ldw	r5,-12(fp)
    a068:	000a1640 	call	a164 <CyFxSpiWaitForStatus>
    a06c:	e0bffa85 	stb	r2,-22(fp)
    a070:	e0bffa83 	ldbu	r2,-22(fp)
    a074:	1000021e 	bne	r2,zero,a080 <FlashSpiTransfer+0x100>
    a078:	e0bffa83 	ldbu	r2,-22(fp)
    a07c:	00003406 	br	a150 <FlashSpiTransfer+0x1d0>
    a080:	e0fffac4 	addi	r3,fp,-21
    a084:	00804004 	movi	r2,256
    a088:	d8800015 	stw	r2,0(sp)
    a08c:	e0800217 	ldw	r2,8(fp)
    a090:	d8800115 	stw	r2,4(sp)
    a094:	d8000215 	stw	zero,8(sp)
    a098:	e13ffc17 	ldw	r4,-16(fp)
    a09c:	e17ffd17 	ldw	r5,-12(fp)
    a0a0:	01800104 	movi	r6,4
    a0a4:	180f883a 	mov	r7,r3
    a0a8:	000a9940 	call	a994 <alt_avalon_spi_command>
    a0ac:	00001c06 	br	a120 <FlashSpiTransfer+0x1a0>
    a0b0:	00801004 	movi	r2,64
    a0b4:	e0bffac5 	stb	r2,-21(fp)
    a0b8:	e13ffc17 	ldw	r4,-16(fp)
    a0bc:	e17ffd17 	ldw	r5,-12(fp)
    a0c0:	000a1640 	call	a164 <CyFxSpiWaitForStatus>
    a0c4:	e0bffa85 	stb	r2,-22(fp)
    a0c8:	e0bffa83 	ldbu	r2,-22(fp)
    a0cc:	10000226 	beq	r2,zero,a0d8 <FlashSpiTransfer+0x158>
    a0d0:	e0bffa83 	ldbu	r2,-22(fp)
    a0d4:	00001e06 	br	a150 <FlashSpiTransfer+0x1d0>
    a0d8:	e0fffac4 	addi	r3,fp,-21
    a0dc:	d8000015 	stw	zero,0(sp)
    a0e0:	d8000115 	stw	zero,4(sp)
    a0e4:	00800044 	movi	r2,1
    a0e8:	d8800215 	stw	r2,8(sp)
    a0ec:	e13ffc17 	ldw	r4,-16(fp)
    a0f0:	e17ffd17 	ldw	r5,-12(fp)
    a0f4:	01800104 	movi	r6,4
    a0f8:	180f883a 	mov	r7,r3
    a0fc:	000a9940 	call	a994 <alt_avalon_spi_command>
    a100:	d8000015 	stw	zero,0(sp)
    a104:	d8000115 	stw	zero,4(sp)
    a108:	d8000215 	stw	zero,8(sp)
    a10c:	e13ffc17 	ldw	r4,-16(fp)
    a110:	e17ffd17 	ldw	r5,-12(fp)
    a114:	01804004 	movi	r6,256
    a118:	e1c00217 	ldw	r7,8(fp)
    a11c:	000a9940 	call	a994 <alt_avalon_spi_command>
    a120:	e0bff917 	ldw	r2,-28(fp)
    a124:	10804004 	addi	r2,r2,256
    a128:	e0bff915 	stw	r2,-28(fp)
    a12c:	e0800217 	ldw	r2,8(fp)
    a130:	10804004 	addi	r2,r2,256
    a134:	e0800215 	stw	r2,8(fp)
    a138:	e0bffa0b 	ldhu	r2,-24(fp)
    a13c:	10bfffc4 	addi	r2,r2,-1
    a140:	e0bffa0d 	sth	r2,-24(fp)
    a144:	e0bffa0b 	ldhu	r2,-24(fp)
    a148:	103fab1e 	bne	r2,zero,9ff8 <_gp+0xffff5900>
    a14c:	e0bffa83 	ldbu	r2,-22(fp)
    a150:	e037883a 	mov	sp,fp
    a154:	dfc00117 	ldw	ra,4(sp)
    a158:	df000017 	ldw	fp,0(sp)
    a15c:	dec00204 	addi	sp,sp,8
    a160:	f800283a 	ret

0000a164 <CyFxSpiWaitForStatus>:
    a164:	defff704 	addi	sp,sp,-36
    a168:	dfc00815 	stw	ra,32(sp)
    a16c:	df000715 	stw	fp,28(sp)
    a170:	df000704 	addi	fp,sp,28
    a174:	e13ffe15 	stw	r4,-8(fp)
    a178:	e17fff15 	stw	r5,-4(fp)
    a17c:	e03ffc15 	stw	zero,-16(fp)
    a180:	00801804 	movi	r2,96
    a184:	e0bffd05 	stb	r2,-12(fp)
    a188:	e0bffd04 	addi	r2,fp,-12
    a18c:	d8000015 	stw	zero,0(sp)
    a190:	d8000115 	stw	zero,4(sp)
    a194:	d8000215 	stw	zero,8(sp)
    a198:	e13ffe17 	ldw	r4,-8(fp)
    a19c:	e17fff17 	ldw	r5,-4(fp)
    a1a0:	01800044 	movi	r6,1
    a1a4:	100f883a 	mov	r7,r2
    a1a8:	000a9940 	call	a994 <alt_avalon_spi_command>
    a1ac:	00bfe804 	movi	r2,-96
    a1b0:	e0bffd05 	stb	r2,-12(fp)
    a1b4:	e0fffd04 	addi	r3,fp,-12
    a1b8:	00800084 	movi	r2,2
    a1bc:	d8800015 	stw	r2,0(sp)
    a1c0:	e0bffd84 	addi	r2,fp,-10
    a1c4:	d8800115 	stw	r2,4(sp)
    a1c8:	d8000215 	stw	zero,8(sp)
    a1cc:	e13ffe17 	ldw	r4,-8(fp)
    a1d0:	e17fff17 	ldw	r5,-4(fp)
    a1d4:	01800044 	movi	r6,1
    a1d8:	180f883a 	mov	r7,r3
    a1dc:	000a9940 	call	a994 <alt_avalon_spi_command>
    a1e0:	e0bffc17 	ldw	r2,-16(fp)
    a1e4:	1089c430 	cmpltui	r2,r2,10000
    a1e8:	1000021e 	bne	r2,zero,a1f4 <CyFxSpiWaitForStatus+0x90>
    a1ec:	00800044 	movi	r2,1
    a1f0:	00000d06 	br	a228 <CyFxSpiWaitForStatus+0xc4>
    a1f4:	e0bffc17 	ldw	r2,-16(fp)
    a1f8:	10800044 	addi	r2,r2,1
    a1fc:	e0bffc15 	stw	r2,-16(fp)
    a200:	e0bffd83 	ldbu	r2,-10(fp)
    a204:	10803fcc 	andi	r2,r2,255
    a208:	1080201c 	xori	r2,r2,128
    a20c:	10bfe004 	addi	r2,r2,-128
    a210:	103fdb16 	blt	r2,zero,a180 <_gp+0xffff5a88>
    a214:	e0bffd83 	ldbu	r2,-10(fp)
    a218:	10803fcc 	andi	r2,r2,255
    a21c:	1080100c 	andi	r2,r2,64
    a220:	103fd726 	beq	r2,zero,a180 <_gp+0xffff5a88>
    a224:	0005883a 	mov	r2,zero
    a228:	e037883a 	mov	sp,fp
    a22c:	dfc00117 	ldw	ra,4(sp)
    a230:	df000017 	ldw	fp,0(sp)
    a234:	dec00204 	addi	sp,sp,8
    a238:	f800283a 	ret

0000a23c <FlashSpiEraseSector>:
    a23c:	defff204 	addi	sp,sp,-56
    a240:	dfc00d15 	stw	ra,52(sp)
    a244:	df000c15 	stw	fp,48(sp)
    a248:	df000c04 	addi	fp,sp,48
    a24c:	e13ffc15 	stw	r4,-16(fp)
    a250:	e17ffd15 	stw	r5,-12(fp)
    a254:	3007883a 	mov	r3,r6
    a258:	3805883a 	mov	r2,r7
    a25c:	e0fffe05 	stb	r3,-8(fp)
    a260:	e0bfff05 	stb	r2,-4(fp)
    a264:	e03ff815 	stw	zero,-32(fp)
    a268:	e03ff715 	stw	zero,-36(fp)
    a26c:	00801804 	movi	r2,96
    a270:	e0bffa05 	stb	r2,-24(fp)
    a274:	e0bffa04 	addi	r2,fp,-24
    a278:	d8000015 	stw	zero,0(sp)
    a27c:	d8000115 	stw	zero,4(sp)
    a280:	d8000215 	stw	zero,8(sp)
    a284:	e13ffc17 	ldw	r4,-16(fp)
    a288:	e17ffd17 	ldw	r5,-12(fp)
    a28c:	01800044 	movi	r6,1
    a290:	100f883a 	mov	r7,r2
    a294:	000a9940 	call	a994 <alt_avalon_spi_command>
    a298:	e0bff915 	stw	r2,-28(fp)
    a29c:	e0bffe03 	ldbu	r2,-8(fp)
    a2a0:	10002026 	beq	r2,zero,a324 <FlashSpiEraseSector+0xe8>
    a2a4:	008006c4 	movi	r2,27
    a2a8:	e0bffa05 	stb	r2,-24(fp)
    a2ac:	e0bfff03 	ldbu	r2,-4(fp)
    a2b0:	1004943a 	slli	r2,r2,16
    a2b4:	e0bff815 	stw	r2,-32(fp)
    a2b8:	e0bff817 	ldw	r2,-32(fp)
    a2bc:	1004d43a 	srli	r2,r2,16
    a2c0:	10803fcc 	andi	r2,r2,255
    a2c4:	1009883a 	mov	r4,r2
    a2c8:	0009eb00 	call	9eb0 <ReverseBitOrder>
    a2cc:	e0bffa45 	stb	r2,-23(fp)
    a2d0:	e0bff817 	ldw	r2,-32(fp)
    a2d4:	1004d23a 	srli	r2,r2,8
    a2d8:	10803fcc 	andi	r2,r2,255
    a2dc:	1009883a 	mov	r4,r2
    a2e0:	0009eb00 	call	9eb0 <ReverseBitOrder>
    a2e4:	e0bffa85 	stb	r2,-22(fp)
    a2e8:	e0bff817 	ldw	r2,-32(fp)
    a2ec:	10803fcc 	andi	r2,r2,255
    a2f0:	1009883a 	mov	r4,r2
    a2f4:	0009eb00 	call	9eb0 <ReverseBitOrder>
    a2f8:	e0bffac5 	stb	r2,-21(fp)
    a2fc:	e0bffa04 	addi	r2,fp,-24
    a300:	d8000015 	stw	zero,0(sp)
    a304:	d8000115 	stw	zero,4(sp)
    a308:	d8000215 	stw	zero,8(sp)
    a30c:	e13ffc17 	ldw	r4,-16(fp)
    a310:	e17ffd17 	ldw	r5,-12(fp)
    a314:	01800104 	movi	r6,4
    a318:	100f883a 	mov	r7,r2
    a31c:	000a9940 	call	a994 <alt_avalon_spi_command>
    a320:	e0bff915 	stw	r2,-28(fp)
    a324:	00bfe804 	movi	r2,-96
    a328:	e0bffa05 	stb	r2,-24(fp)
    a32c:	e0fffa04 	addi	r3,fp,-24
    a330:	00800044 	movi	r2,1
    a334:	d8800015 	stw	r2,0(sp)
    a338:	e0bffb04 	addi	r2,fp,-20
    a33c:	d8800115 	stw	r2,4(sp)
    a340:	d8000215 	stw	zero,8(sp)
    a344:	e13ffc17 	ldw	r4,-16(fp)
    a348:	e17ffd17 	ldw	r5,-12(fp)
    a34c:	01800044 	movi	r6,1
    a350:	180f883a 	mov	r7,r3
    a354:	000a9940 	call	a994 <alt_avalon_spi_command>
    a358:	e0bff915 	stw	r2,-28(fp)
    a35c:	e0fff717 	ldw	r3,-36(fp)
    a360:	00800bb4 	movhi	r2,46
    a364:	10b1afc4 	addi	r2,r2,-14657
    a368:	10c0022e 	bgeu	r2,r3,a374 <FlashSpiEraseSector+0x138>
    a36c:	00800044 	movi	r2,1
    a370:	00000906 	br	a398 <FlashSpiEraseSector+0x15c>
    a374:	e0bff717 	ldw	r2,-36(fp)
    a378:	10800044 	addi	r2,r2,1
    a37c:	e0bff715 	stw	r2,-36(fp)
    a380:	e0bffb03 	ldbu	r2,-20(fp)
    a384:	10803fcc 	andi	r2,r2,255
    a388:	1080201c 	xori	r2,r2,128
    a38c:	10bfe004 	addi	r2,r2,-128
    a390:	103fe616 	blt	r2,zero,a32c <_gp+0xffff5c34>
    a394:	0005883a 	mov	r2,zero
    a398:	e037883a 	mov	sp,fp
    a39c:	dfc00117 	ldw	ra,4(sp)
    a3a0:	df000017 	ldw	fp,0(sp)
    a3a4:	dec00204 	addi	sp,sp,8
    a3a8:	f800283a 	ret

0000a3ac <udivmodsi4>:
    a3ac:	2900182e 	bgeu	r5,r4,a410 <udivmodsi4+0x64>
    a3b0:	28001716 	blt	r5,zero,a410 <udivmodsi4+0x64>
    a3b4:	00800804 	movi	r2,32
    a3b8:	00c00044 	movi	r3,1
    a3bc:	00000206 	br	a3c8 <udivmodsi4+0x1c>
    a3c0:	10001126 	beq	r2,zero,a408 <udivmodsi4+0x5c>
    a3c4:	28000516 	blt	r5,zero,a3dc <udivmodsi4+0x30>
    a3c8:	294b883a 	add	r5,r5,r5
    a3cc:	10bfffc4 	addi	r2,r2,-1
    a3d0:	18c7883a 	add	r3,r3,r3
    a3d4:	293ffa36 	bltu	r5,r4,a3c0 <_gp+0xffff5cc8>
    a3d8:	18000b26 	beq	r3,zero,a408 <udivmodsi4+0x5c>
    a3dc:	0005883a 	mov	r2,zero
    a3e0:	21400236 	bltu	r4,r5,a3ec <udivmodsi4+0x40>
    a3e4:	2149c83a 	sub	r4,r4,r5
    a3e8:	10c4b03a 	or	r2,r2,r3
    a3ec:	1806d07a 	srli	r3,r3,1
    a3f0:	280ad07a 	srli	r5,r5,1
    a3f4:	183ffa1e 	bne	r3,zero,a3e0 <_gp+0xffff5ce8>
    a3f8:	3000011e 	bne	r6,zero,a400 <udivmodsi4+0x54>
    a3fc:	f800283a 	ret
    a400:	2005883a 	mov	r2,r4
    a404:	f800283a 	ret
    a408:	0005883a 	mov	r2,zero
    a40c:	003ffa06 	br	a3f8 <_gp+0xffff5d00>
    a410:	00c00044 	movi	r3,1
    a414:	003ff106 	br	a3dc <_gp+0xffff5ce4>

0000a418 <__divsi3>:
    a418:	defffe04 	addi	sp,sp,-8
    a41c:	dfc00115 	stw	ra,4(sp)
    a420:	dc000015 	stw	r16,0(sp)
    a424:	20000b16 	blt	r4,zero,a454 <__divsi3+0x3c>
    a428:	0021883a 	mov	r16,zero
    a42c:	28000c16 	blt	r5,zero,a460 <__divsi3+0x48>
    a430:	000d883a 	mov	r6,zero
    a434:	000a3ac0 	call	a3ac <udivmodsi4>
    a438:	0407c83a 	sub	r3,zero,r16
    a43c:	1884f03a 	xor	r2,r3,r2
    a440:	1405883a 	add	r2,r2,r16
    a444:	dfc00117 	ldw	ra,4(sp)
    a448:	dc000017 	ldw	r16,0(sp)
    a44c:	dec00204 	addi	sp,sp,8
    a450:	f800283a 	ret
    a454:	0109c83a 	sub	r4,zero,r4
    a458:	04000044 	movi	r16,1
    a45c:	283ff40e 	bge	r5,zero,a430 <_gp+0xffff5d38>
    a460:	014bc83a 	sub	r5,zero,r5
    a464:	8400005c 	xori	r16,r16,1
    a468:	003ff106 	br	a430 <_gp+0xffff5d38>

0000a46c <__modsi3>:
    a46c:	defffd04 	addi	sp,sp,-12
    a470:	dfc00215 	stw	ra,8(sp)
    a474:	dc400115 	stw	r17,4(sp)
    a478:	dc000015 	stw	r16,0(sp)
    a47c:	20000c16 	blt	r4,zero,a4b0 <__modsi3+0x44>
    a480:	0023883a 	mov	r17,zero
    a484:	0021883a 	mov	r16,zero
    a488:	28000d16 	blt	r5,zero,a4c0 <__modsi3+0x54>
    a48c:	01800044 	movi	r6,1
    a490:	000a3ac0 	call	a3ac <udivmodsi4>
    a494:	1404f03a 	xor	r2,r2,r16
    a498:	8885883a 	add	r2,r17,r2
    a49c:	dfc00217 	ldw	ra,8(sp)
    a4a0:	dc400117 	ldw	r17,4(sp)
    a4a4:	dc000017 	ldw	r16,0(sp)
    a4a8:	dec00304 	addi	sp,sp,12
    a4ac:	f800283a 	ret
    a4b0:	0109c83a 	sub	r4,zero,r4
    a4b4:	04400044 	movi	r17,1
    a4b8:	043fffc4 	movi	r16,-1
    a4bc:	283ff30e 	bge	r5,zero,a48c <_gp+0xffff5d94>
    a4c0:	014bc83a 	sub	r5,zero,r5
    a4c4:	003ff106 	br	a48c <_gp+0xffff5d94>

0000a4c8 <__udivsi3>:
    a4c8:	000d883a 	mov	r6,zero
    a4cc:	000a3ac1 	jmpi	a3ac <udivmodsi4>

0000a4d0 <__umodsi3>:
    a4d0:	01800044 	movi	r6,1
    a4d4:	000a3ac1 	jmpi	a3ac <udivmodsi4>

0000a4d8 <__mulsi3>:
    a4d8:	0005883a 	mov	r2,zero
    a4dc:	20000726 	beq	r4,zero,a4fc <__mulsi3+0x24>
    a4e0:	20c0004c 	andi	r3,r4,1
    a4e4:	2008d07a 	srli	r4,r4,1
    a4e8:	18000126 	beq	r3,zero,a4f0 <__mulsi3+0x18>
    a4ec:	1145883a 	add	r2,r2,r5
    a4f0:	294b883a 	add	r5,r5,r5
    a4f4:	203ffa1e 	bne	r4,zero,a4e0 <_gp+0xffff5de8>
    a4f8:	f800283a 	ret
    a4fc:	f800283a 	ret

0000a500 <memcpy>:
    a500:	deffff04 	addi	sp,sp,-4
    a504:	dc000015 	stw	r16,0(sp)
    a508:	00c003c4 	movi	r3,15
    a50c:	2005883a 	mov	r2,r4
    a510:	1980432e 	bgeu	r3,r6,a620 <memcpy+0x120>
    a514:	2146b03a 	or	r3,r4,r5
    a518:	18c000cc 	andi	r3,r3,3
    a51c:	1800421e 	bne	r3,zero,a628 <memcpy+0x128>
    a520:	343ffc04 	addi	r16,r6,-16
    a524:	8020d13a 	srli	r16,r16,4
    a528:	28c00104 	addi	r3,r5,4
    a52c:	23400104 	addi	r13,r4,4
    a530:	801e913a 	slli	r15,r16,4
    a534:	2b000204 	addi	r12,r5,8
    a538:	22c00204 	addi	r11,r4,8
    a53c:	7bc00504 	addi	r15,r15,20
    a540:	2a800304 	addi	r10,r5,12
    a544:	22400304 	addi	r9,r4,12
    a548:	2bdf883a 	add	r15,r5,r15
    a54c:	2811883a 	mov	r8,r5
    a550:	200f883a 	mov	r7,r4
    a554:	41000017 	ldw	r4,0(r8)
    a558:	39c00404 	addi	r7,r7,16
    a55c:	18c00404 	addi	r3,r3,16
    a560:	393ffc15 	stw	r4,-16(r7)
    a564:	1bbffc17 	ldw	r14,-16(r3)
    a568:	6b400404 	addi	r13,r13,16
    a56c:	5ac00404 	addi	r11,r11,16
    a570:	6bbffc15 	stw	r14,-16(r13)
    a574:	63800017 	ldw	r14,0(r12)
    a578:	4a400404 	addi	r9,r9,16
    a57c:	42000404 	addi	r8,r8,16
    a580:	5bbffc15 	stw	r14,-16(r11)
    a584:	53800017 	ldw	r14,0(r10)
    a588:	63000404 	addi	r12,r12,16
    a58c:	52800404 	addi	r10,r10,16
    a590:	4bbffc15 	stw	r14,-16(r9)
    a594:	1bffef1e 	bne	r3,r15,a554 <_gp+0xffff5e5c>
    a598:	81c00044 	addi	r7,r16,1
    a59c:	380e913a 	slli	r7,r7,4
    a5a0:	310003cc 	andi	r4,r6,15
    a5a4:	02c000c4 	movi	r11,3
    a5a8:	11c7883a 	add	r3,r2,r7
    a5ac:	29cb883a 	add	r5,r5,r7
    a5b0:	59001f2e 	bgeu	r11,r4,a630 <memcpy+0x130>
    a5b4:	1813883a 	mov	r9,r3
    a5b8:	2811883a 	mov	r8,r5
    a5bc:	200f883a 	mov	r7,r4
    a5c0:	42800017 	ldw	r10,0(r8)
    a5c4:	4a400104 	addi	r9,r9,4
    a5c8:	39ffff04 	addi	r7,r7,-4
    a5cc:	4abfff15 	stw	r10,-4(r9)
    a5d0:	42000104 	addi	r8,r8,4
    a5d4:	59fffa36 	bltu	r11,r7,a5c0 <_gp+0xffff5ec8>
    a5d8:	213fff04 	addi	r4,r4,-4
    a5dc:	2008d0ba 	srli	r4,r4,2
    a5e0:	318000cc 	andi	r6,r6,3
    a5e4:	21000044 	addi	r4,r4,1
    a5e8:	2109883a 	add	r4,r4,r4
    a5ec:	2109883a 	add	r4,r4,r4
    a5f0:	1907883a 	add	r3,r3,r4
    a5f4:	290b883a 	add	r5,r5,r4
    a5f8:	30000626 	beq	r6,zero,a614 <memcpy+0x114>
    a5fc:	198d883a 	add	r6,r3,r6
    a600:	29c00003 	ldbu	r7,0(r5)
    a604:	18c00044 	addi	r3,r3,1
    a608:	29400044 	addi	r5,r5,1
    a60c:	19ffffc5 	stb	r7,-1(r3)
    a610:	19bffb1e 	bne	r3,r6,a600 <_gp+0xffff5f08>
    a614:	dc000017 	ldw	r16,0(sp)
    a618:	dec00104 	addi	sp,sp,4
    a61c:	f800283a 	ret
    a620:	2007883a 	mov	r3,r4
    a624:	003ff406 	br	a5f8 <_gp+0xffff5f00>
    a628:	2007883a 	mov	r3,r4
    a62c:	003ff306 	br	a5fc <_gp+0xffff5f04>
    a630:	200d883a 	mov	r6,r4
    a634:	003ff006 	br	a5f8 <_gp+0xffff5f00>

0000a638 <memset>:
    a638:	20c000cc 	andi	r3,r4,3
    a63c:	2005883a 	mov	r2,r4
    a640:	18004326 	beq	r3,zero,a750 <memset+0x118>
    a644:	31ffffc4 	addi	r7,r6,-1
    a648:	30004026 	beq	r6,zero,a74c <memset+0x114>
    a64c:	2813883a 	mov	r9,r5
    a650:	200d883a 	mov	r6,r4
    a654:	2007883a 	mov	r3,r4
    a658:	00000406 	br	a66c <memset+0x34>
    a65c:	3a3fffc4 	addi	r8,r7,-1
    a660:	31800044 	addi	r6,r6,1
    a664:	38003926 	beq	r7,zero,a74c <memset+0x114>
    a668:	400f883a 	mov	r7,r8
    a66c:	18c00044 	addi	r3,r3,1
    a670:	32400005 	stb	r9,0(r6)
    a674:	1a0000cc 	andi	r8,r3,3
    a678:	403ff81e 	bne	r8,zero,a65c <_gp+0xffff5f64>
    a67c:	010000c4 	movi	r4,3
    a680:	21c02d2e 	bgeu	r4,r7,a738 <memset+0x100>
    a684:	29803fcc 	andi	r6,r5,255
    a688:	3008923a 	slli	r4,r6,8
    a68c:	218cb03a 	or	r6,r4,r6
    a690:	3008943a 	slli	r4,r6,16
    a694:	218cb03a 	or	r6,r4,r6
    a698:	010003c4 	movi	r4,15
    a69c:	21c0182e 	bgeu	r4,r7,a700 <memset+0xc8>
    a6a0:	3b3ffc04 	addi	r12,r7,-16
    a6a4:	6018d13a 	srli	r12,r12,4
    a6a8:	1a000104 	addi	r8,r3,4
    a6ac:	1ac00204 	addi	r11,r3,8
    a6b0:	6008913a 	slli	r4,r12,4
    a6b4:	1a800304 	addi	r10,r3,12
    a6b8:	1813883a 	mov	r9,r3
    a6bc:	21000504 	addi	r4,r4,20
    a6c0:	1909883a 	add	r4,r3,r4
    a6c4:	49800015 	stw	r6,0(r9)
    a6c8:	41800015 	stw	r6,0(r8)
    a6cc:	59800015 	stw	r6,0(r11)
    a6d0:	51800015 	stw	r6,0(r10)
    a6d4:	42000404 	addi	r8,r8,16
    a6d8:	4a400404 	addi	r9,r9,16
    a6dc:	5ac00404 	addi	r11,r11,16
    a6e0:	52800404 	addi	r10,r10,16
    a6e4:	413ff71e 	bne	r8,r4,a6c4 <_gp+0xffff5fcc>
    a6e8:	63000044 	addi	r12,r12,1
    a6ec:	6018913a 	slli	r12,r12,4
    a6f0:	39c003cc 	andi	r7,r7,15
    a6f4:	010000c4 	movi	r4,3
    a6f8:	1b07883a 	add	r3,r3,r12
    a6fc:	21c00e2e 	bgeu	r4,r7,a738 <memset+0x100>
    a700:	1813883a 	mov	r9,r3
    a704:	3811883a 	mov	r8,r7
    a708:	010000c4 	movi	r4,3
    a70c:	49800015 	stw	r6,0(r9)
    a710:	423fff04 	addi	r8,r8,-4
    a714:	4a400104 	addi	r9,r9,4
    a718:	223ffc36 	bltu	r4,r8,a70c <_gp+0xffff6014>
    a71c:	393fff04 	addi	r4,r7,-4
    a720:	2008d0ba 	srli	r4,r4,2
    a724:	39c000cc 	andi	r7,r7,3
    a728:	21000044 	addi	r4,r4,1
    a72c:	2109883a 	add	r4,r4,r4
    a730:	2109883a 	add	r4,r4,r4
    a734:	1907883a 	add	r3,r3,r4
    a738:	38000426 	beq	r7,zero,a74c <memset+0x114>
    a73c:	19cf883a 	add	r7,r3,r7
    a740:	19400005 	stb	r5,0(r3)
    a744:	18c00044 	addi	r3,r3,1
    a748:	19fffd1e 	bne	r3,r7,a740 <_gp+0xffff6048>
    a74c:	f800283a 	ret
    a750:	2007883a 	mov	r3,r4
    a754:	300f883a 	mov	r7,r6
    a758:	003fc806 	br	a67c <_gp+0xffff5f84>

0000a75c <alt_load_section>:
    a75c:	defffc04 	addi	sp,sp,-16
    a760:	df000315 	stw	fp,12(sp)
    a764:	df000304 	addi	fp,sp,12
    a768:	e13ffd15 	stw	r4,-12(fp)
    a76c:	e17ffe15 	stw	r5,-8(fp)
    a770:	e1bfff15 	stw	r6,-4(fp)
    a774:	e0fffe17 	ldw	r3,-8(fp)
    a778:	e0bffd17 	ldw	r2,-12(fp)
    a77c:	18800c26 	beq	r3,r2,a7b0 <alt_load_section+0x54>
    a780:	00000806 	br	a7a4 <alt_load_section+0x48>
    a784:	e0bffe17 	ldw	r2,-8(fp)
    a788:	10c00104 	addi	r3,r2,4
    a78c:	e0fffe15 	stw	r3,-8(fp)
    a790:	e0fffd17 	ldw	r3,-12(fp)
    a794:	19000104 	addi	r4,r3,4
    a798:	e13ffd15 	stw	r4,-12(fp)
    a79c:	18c00017 	ldw	r3,0(r3)
    a7a0:	10c00015 	stw	r3,0(r2)
    a7a4:	e0fffe17 	ldw	r3,-8(fp)
    a7a8:	e0bfff17 	ldw	r2,-4(fp)
    a7ac:	18bff51e 	bne	r3,r2,a784 <_gp+0xffff608c>
    a7b0:	e037883a 	mov	sp,fp
    a7b4:	df000017 	ldw	fp,0(sp)
    a7b8:	dec00104 	addi	sp,sp,4
    a7bc:	f800283a 	ret

0000a7c0 <alt_load>:
    a7c0:	defffe04 	addi	sp,sp,-8
    a7c4:	dfc00115 	stw	ra,4(sp)
    a7c8:	df000015 	stw	fp,0(sp)
    a7cc:	d839883a 	mov	fp,sp
    a7d0:	01000074 	movhi	r4,1
    a7d4:	2131cb04 	addi	r4,r4,-14548
    a7d8:	01400074 	movhi	r5,1
    a7dc:	29701a04 	addi	r5,r5,-16280
    a7e0:	01800074 	movhi	r6,1
    a7e4:	31b1cb04 	addi	r6,r6,-14548
    a7e8:	000a75c0 	call	a75c <alt_load_section>
    a7ec:	01000074 	movhi	r4,1
    a7f0:	21200804 	addi	r4,r4,-32736
    a7f4:	01400074 	movhi	r5,1
    a7f8:	29600804 	addi	r5,r5,-32736
    a7fc:	01800074 	movhi	r6,1
    a800:	31a08b04 	addi	r6,r6,-32212
    a804:	000a75c0 	call	a75c <alt_load_section>
    a808:	01000074 	movhi	r4,1
    a80c:	21301304 	addi	r4,r4,-16308
    a810:	01400074 	movhi	r5,1
    a814:	29701304 	addi	r5,r5,-16308
    a818:	01800074 	movhi	r6,1
    a81c:	31b01a04 	addi	r6,r6,-16280
    a820:	000a75c0 	call	a75c <alt_load_section>
    a824:	000b7080 	call	b708 <alt_dcache_flush_all>
    a828:	000b8fc0 	call	b8fc <alt_icache_flush_all>
    a82c:	e037883a 	mov	sp,fp
    a830:	dfc00117 	ldw	ra,4(sp)
    a834:	df000017 	ldw	fp,0(sp)
    a838:	dec00204 	addi	sp,sp,8
    a83c:	f800283a 	ret

0000a840 <alt_main>:
    a840:	defffd04 	addi	sp,sp,-12
    a844:	dfc00215 	stw	ra,8(sp)
    a848:	df000115 	stw	fp,4(sp)
    a84c:	df000104 	addi	fp,sp,4
    a850:	0009883a 	mov	r4,zero
    a854:	000a9040 	call	a904 <alt_irq_init>
    a858:	0001883a 	nop
    a85c:	000a9380 	call	a938 <alt_sys_init>
    a860:	000b8440 	call	b844 <_do_ctors>
    a864:	01000074 	movhi	r4,1
    a868:	212e2804 	addi	r4,r4,-18272
    a86c:	000bd240 	call	bd24 <atexit>
    a870:	d121cb17 	ldw	r4,-30932(gp)
    a874:	d0e1cc17 	ldw	r3,-30928(gp)
    a878:	d0a1cd17 	ldw	r2,-30924(gp)
    a87c:	180b883a 	mov	r5,r3
    a880:	100d883a 	mov	r6,r2
    a884:	000871c0 	call	871c <main>
    a888:	e0bfff15 	stw	r2,-4(fp)
    a88c:	01000044 	movi	r4,1
    a890:	000b6300 	call	b630 <close>
    a894:	e13fff17 	ldw	r4,-4(fp)
    a898:	000bd380 	call	bd38 <exit>

0000a89c <usleep>:
    a89c:	defffd04 	addi	sp,sp,-12
    a8a0:	dfc00215 	stw	ra,8(sp)
    a8a4:	df000115 	stw	fp,4(sp)
    a8a8:	df000104 	addi	fp,sp,4
    a8ac:	e13fff15 	stw	r4,-4(fp)
    a8b0:	e13fff17 	ldw	r4,-4(fp)
    a8b4:	000b4880 	call	b488 <alt_busy_sleep>
    a8b8:	e037883a 	mov	sp,fp
    a8bc:	dfc00117 	ldw	ra,4(sp)
    a8c0:	df000017 	ldw	fp,0(sp)
    a8c4:	dec00204 	addi	sp,sp,8
    a8c8:	f800283a 	ret

0000a8cc <alt_dev_reg>:
    a8cc:	defffd04 	addi	sp,sp,-12
    a8d0:	dfc00215 	stw	ra,8(sp)
    a8d4:	df000115 	stw	fp,4(sp)
    a8d8:	df000104 	addi	fp,sp,4
    a8dc:	e13fff15 	stw	r4,-4(fp)
    a8e0:	e13fff17 	ldw	r4,-4(fp)
    a8e4:	01400074 	movhi	r5,1
    a8e8:	2971c404 	addi	r5,r5,-14576
    a8ec:	000b7a00 	call	b7a0 <alt_dev_llist_insert>
    a8f0:	e037883a 	mov	sp,fp
    a8f4:	dfc00117 	ldw	ra,4(sp)
    a8f8:	df000017 	ldw	fp,0(sp)
    a8fc:	dec00204 	addi	sp,sp,8
    a900:	f800283a 	ret

0000a904 <alt_irq_init>:
    a904:	defffd04 	addi	sp,sp,-12
    a908:	dfc00215 	stw	ra,8(sp)
    a90c:	df000115 	stw	fp,4(sp)
    a910:	df000104 	addi	fp,sp,4
    a914:	e13fff15 	stw	r4,-4(fp)
    a918:	000bc680 	call	bc68 <altera_nios2_gen2_irq_init>
    a91c:	00800044 	movi	r2,1
    a920:	1001703a 	wrctl	status,r2
    a924:	e037883a 	mov	sp,fp
    a928:	dfc00117 	ldw	ra,4(sp)
    a92c:	df000017 	ldw	fp,0(sp)
    a930:	dec00204 	addi	sp,sp,8
    a934:	f800283a 	ret

0000a938 <alt_sys_init>:
    a938:	defffe04 	addi	sp,sp,-8
    a93c:	dfc00115 	stw	ra,4(sp)
    a940:	df000015 	stw	fp,0(sp)
    a944:	d839883a 	mov	fp,sp
    a948:	0001883a 	nop
    a94c:	0001883a 	nop
    a950:	0001883a 	nop
    a954:	0001883a 	nop
    a958:	0001883a 	nop
    a95c:	01000074 	movhi	r4,1
    a960:	21302404 	addi	r4,r4,-16240
    a964:	000b883a 	mov	r5,zero
    a968:	01800044 	movi	r6,1
    a96c:	000aca80 	call	aca8 <altera_avalon_uart_init>
    a970:	01000074 	movhi	r4,1
    a974:	21301a04 	addi	r4,r4,-16280
    a978:	000a8cc0 	call	a8cc <alt_dev_reg>
    a97c:	0001883a 	nop
    a980:	e037883a 	mov	sp,fp
    a984:	dfc00117 	ldw	ra,4(sp)
    a988:	df000017 	ldw	fp,0(sp)
    a98c:	dec00204 	addi	sp,sp,8
    a990:	f800283a 	ret

0000a994 <alt_avalon_spi_command>:
    a994:	defff404 	addi	sp,sp,-48
    a998:	df000b15 	stw	fp,44(sp)
    a99c:	df000b04 	addi	fp,sp,44
    a9a0:	e13ffc15 	stw	r4,-16(fp)
    a9a4:	e17ffd15 	stw	r5,-12(fp)
    a9a8:	e1bffe15 	stw	r6,-8(fp)
    a9ac:	e1ffff15 	stw	r7,-4(fp)
    a9b0:	e0ffff17 	ldw	r3,-4(fp)
    a9b4:	e0bffe17 	ldw	r2,-8(fp)
    a9b8:	1885883a 	add	r2,r3,r2
    a9bc:	e0bff815 	stw	r2,-32(fp)
    a9c0:	e0c00217 	ldw	r3,8(fp)
    a9c4:	e0800117 	ldw	r2,4(fp)
    a9c8:	1885883a 	add	r2,r3,r2
    a9cc:	e0bff915 	stw	r2,-28(fp)
    a9d0:	e0800117 	ldw	r2,4(fp)
    a9d4:	e0bff515 	stw	r2,-44(fp)
    a9d8:	e0bffe17 	ldw	r2,-8(fp)
    a9dc:	e0bff615 	stw	r2,-40(fp)
    a9e0:	00800044 	movi	r2,1
    a9e4:	e0bff715 	stw	r2,-36(fp)
    a9e8:	e0bffc17 	ldw	r2,-16(fp)
    a9ec:	10800504 	addi	r2,r2,20
    a9f0:	1009883a 	mov	r4,r2
    a9f4:	e0bffd17 	ldw	r2,-12(fp)
    a9f8:	00c00044 	movi	r3,1
    a9fc:	1884983a 	sll	r2,r3,r2
    aa00:	20800035 	stwio	r2,0(r4)
    aa04:	e0800317 	ldw	r2,12(fp)
    aa08:	1080008c 	andi	r2,r2,2
    aa0c:	1000051e 	bne	r2,zero,aa24 <alt_avalon_spi_command+0x90>
    aa10:	e0bffc17 	ldw	r2,-16(fp)
    aa14:	10800304 	addi	r2,r2,12
    aa18:	1007883a 	mov	r3,r2
    aa1c:	00810004 	movi	r2,1024
    aa20:	18800035 	stwio	r2,0(r3)
    aa24:	e0bffc17 	ldw	r2,-16(fp)
    aa28:	10800037 	ldwio	r2,0(r2)
    aa2c:	e0bffc17 	ldw	r2,-16(fp)
    aa30:	10800204 	addi	r2,r2,8
    aa34:	10800037 	ldwio	r2,0(r2)
    aa38:	e0bffa15 	stw	r2,-24(fp)
    aa3c:	e0bffa17 	ldw	r2,-24(fp)
    aa40:	1080100c 	andi	r2,r2,64
    aa44:	10000226 	beq	r2,zero,aa50 <alt_avalon_spi_command+0xbc>
    aa48:	e0bff717 	ldw	r2,-36(fp)
    aa4c:	1000031e 	bne	r2,zero,aa5c <alt_avalon_spi_command+0xc8>
    aa50:	e0bffa17 	ldw	r2,-24(fp)
    aa54:	1080200c 	andi	r2,r2,128
    aa58:	103ff426 	beq	r2,zero,aa2c <_gp+0xffff6334>
    aa5c:	e0bffa17 	ldw	r2,-24(fp)
    aa60:	1080100c 	andi	r2,r2,64
    aa64:	10001e26 	beq	r2,zero,aae0 <alt_avalon_spi_command+0x14c>
    aa68:	e0bff717 	ldw	r2,-36(fp)
    aa6c:	00801c0e 	bge	zero,r2,aae0 <alt_avalon_spi_command+0x14c>
    aa70:	e0bff717 	ldw	r2,-36(fp)
    aa74:	10bfffc4 	addi	r2,r2,-1
    aa78:	e0bff715 	stw	r2,-36(fp)
    aa7c:	e0ffff17 	ldw	r3,-4(fp)
    aa80:	e0bff817 	ldw	r2,-32(fp)
    aa84:	18800a2e 	bgeu	r3,r2,aab0 <alt_avalon_spi_command+0x11c>
    aa88:	e0bffc17 	ldw	r2,-16(fp)
    aa8c:	10800104 	addi	r2,r2,4
    aa90:	1009883a 	mov	r4,r2
    aa94:	e0bfff17 	ldw	r2,-4(fp)
    aa98:	10c00044 	addi	r3,r2,1
    aa9c:	e0ffff15 	stw	r3,-4(fp)
    aaa0:	10800003 	ldbu	r2,0(r2)
    aaa4:	10803fcc 	andi	r2,r2,255
    aaa8:	20800035 	stwio	r2,0(r4)
    aaac:	00000c06 	br	aae0 <alt_avalon_spi_command+0x14c>
    aab0:	e0bff517 	ldw	r2,-44(fp)
    aab4:	10000826 	beq	r2,zero,aad8 <alt_avalon_spi_command+0x144>
    aab8:	e0bff517 	ldw	r2,-44(fp)
    aabc:	10bfffc4 	addi	r2,r2,-1
    aac0:	e0bff515 	stw	r2,-44(fp)
    aac4:	e0bffc17 	ldw	r2,-16(fp)
    aac8:	10800104 	addi	r2,r2,4
    aacc:	0007883a 	mov	r3,zero
    aad0:	10c00035 	stwio	r3,0(r2)
    aad4:	00000206 	br	aae0 <alt_avalon_spi_command+0x14c>
    aad8:	00bf0004 	movi	r2,-1024
    aadc:	e0bff715 	stw	r2,-36(fp)
    aae0:	e0bffa17 	ldw	r2,-24(fp)
    aae4:	1080200c 	andi	r2,r2,128
    aae8:	10001726 	beq	r2,zero,ab48 <alt_avalon_spi_command+0x1b4>
    aaec:	e0bffc17 	ldw	r2,-16(fp)
    aaf0:	10800037 	ldwio	r2,0(r2)
    aaf4:	e0bffb15 	stw	r2,-20(fp)
    aaf8:	e0bff617 	ldw	r2,-40(fp)
    aafc:	10000426 	beq	r2,zero,ab10 <alt_avalon_spi_command+0x17c>
    ab00:	e0bff617 	ldw	r2,-40(fp)
    ab04:	10bfffc4 	addi	r2,r2,-1
    ab08:	e0bff615 	stw	r2,-40(fp)
    ab0c:	00000506 	br	ab24 <alt_avalon_spi_command+0x190>
    ab10:	e0800217 	ldw	r2,8(fp)
    ab14:	10c00044 	addi	r3,r2,1
    ab18:	e0c00215 	stw	r3,8(fp)
    ab1c:	e0fffb17 	ldw	r3,-20(fp)
    ab20:	10c00005 	stb	r3,0(r2)
    ab24:	e0bff717 	ldw	r2,-36(fp)
    ab28:	10800044 	addi	r2,r2,1
    ab2c:	e0bff715 	stw	r2,-36(fp)
    ab30:	e0bff617 	ldw	r2,-40(fp)
    ab34:	1000041e 	bne	r2,zero,ab48 <alt_avalon_spi_command+0x1b4>
    ab38:	e0c00217 	ldw	r3,8(fp)
    ab3c:	e0bff917 	ldw	r2,-28(fp)
    ab40:	1880011e 	bne	r3,r2,ab48 <alt_avalon_spi_command+0x1b4>
    ab44:	00000106 	br	ab4c <alt_avalon_spi_command+0x1b8>
    ab48:	003fb806 	br	aa2c <_gp+0xffff6334>
    ab4c:	e0bffc17 	ldw	r2,-16(fp)
    ab50:	10800204 	addi	r2,r2,8
    ab54:	10800037 	ldwio	r2,0(r2)
    ab58:	e0bffa15 	stw	r2,-24(fp)
    ab5c:	e0bffa17 	ldw	r2,-24(fp)
    ab60:	1080080c 	andi	r2,r2,32
    ab64:	103ff926 	beq	r2,zero,ab4c <_gp+0xffff6454>
    ab68:	e0800317 	ldw	r2,12(fp)
    ab6c:	1080004c 	andi	r2,r2,1
    ab70:	1000041e 	bne	r2,zero,ab84 <alt_avalon_spi_command+0x1f0>
    ab74:	e0bffc17 	ldw	r2,-16(fp)
    ab78:	10800304 	addi	r2,r2,12
    ab7c:	0007883a 	mov	r3,zero
    ab80:	10c00035 	stwio	r3,0(r2)
    ab84:	e0800117 	ldw	r2,4(fp)
    ab88:	e037883a 	mov	sp,fp
    ab8c:	df000017 	ldw	fp,0(sp)
    ab90:	dec00104 	addi	sp,sp,4
    ab94:	f800283a 	ret

0000ab98 <altera_avalon_uart_read_fd>:
    ab98:	defffa04 	addi	sp,sp,-24
    ab9c:	dfc00515 	stw	ra,20(sp)
    aba0:	df000415 	stw	fp,16(sp)
    aba4:	df000404 	addi	fp,sp,16
    aba8:	e13ffd15 	stw	r4,-12(fp)
    abac:	e17ffe15 	stw	r5,-8(fp)
    abb0:	e1bfff15 	stw	r6,-4(fp)
    abb4:	e0bffd17 	ldw	r2,-12(fp)
    abb8:	10800017 	ldw	r2,0(r2)
    abbc:	e0bffc15 	stw	r2,-16(fp)
    abc0:	e0bffc17 	ldw	r2,-16(fp)
    abc4:	10c00a04 	addi	r3,r2,40
    abc8:	e0bffd17 	ldw	r2,-12(fp)
    abcc:	10800217 	ldw	r2,8(r2)
    abd0:	1809883a 	mov	r4,r3
    abd4:	e17ffe17 	ldw	r5,-8(fp)
    abd8:	e1bfff17 	ldw	r6,-4(fp)
    abdc:	100f883a 	mov	r7,r2
    abe0:	000b0b00 	call	b0b0 <altera_avalon_uart_read>
    abe4:	e037883a 	mov	sp,fp
    abe8:	dfc00117 	ldw	ra,4(sp)
    abec:	df000017 	ldw	fp,0(sp)
    abf0:	dec00204 	addi	sp,sp,8
    abf4:	f800283a 	ret

0000abf8 <altera_avalon_uart_write_fd>:
    abf8:	defffa04 	addi	sp,sp,-24
    abfc:	dfc00515 	stw	ra,20(sp)
    ac00:	df000415 	stw	fp,16(sp)
    ac04:	df000404 	addi	fp,sp,16
    ac08:	e13ffd15 	stw	r4,-12(fp)
    ac0c:	e17ffe15 	stw	r5,-8(fp)
    ac10:	e1bfff15 	stw	r6,-4(fp)
    ac14:	e0bffd17 	ldw	r2,-12(fp)
    ac18:	10800017 	ldw	r2,0(r2)
    ac1c:	e0bffc15 	stw	r2,-16(fp)
    ac20:	e0bffc17 	ldw	r2,-16(fp)
    ac24:	10c00a04 	addi	r3,r2,40
    ac28:	e0bffd17 	ldw	r2,-12(fp)
    ac2c:	10800217 	ldw	r2,8(r2)
    ac30:	1809883a 	mov	r4,r3
    ac34:	e17ffe17 	ldw	r5,-8(fp)
    ac38:	e1bfff17 	ldw	r6,-4(fp)
    ac3c:	100f883a 	mov	r7,r2
    ac40:	000b2dc0 	call	b2dc <altera_avalon_uart_write>
    ac44:	e037883a 	mov	sp,fp
    ac48:	dfc00117 	ldw	ra,4(sp)
    ac4c:	df000017 	ldw	fp,0(sp)
    ac50:	dec00204 	addi	sp,sp,8
    ac54:	f800283a 	ret

0000ac58 <altera_avalon_uart_close_fd>:
    ac58:	defffc04 	addi	sp,sp,-16
    ac5c:	dfc00315 	stw	ra,12(sp)
    ac60:	df000215 	stw	fp,8(sp)
    ac64:	df000204 	addi	fp,sp,8
    ac68:	e13fff15 	stw	r4,-4(fp)
    ac6c:	e0bfff17 	ldw	r2,-4(fp)
    ac70:	10800017 	ldw	r2,0(r2)
    ac74:	e0bffe15 	stw	r2,-8(fp)
    ac78:	e0bffe17 	ldw	r2,-8(fp)
    ac7c:	10c00a04 	addi	r3,r2,40
    ac80:	e0bfff17 	ldw	r2,-4(fp)
    ac84:	10800217 	ldw	r2,8(r2)
    ac88:	1809883a 	mov	r4,r3
    ac8c:	100b883a 	mov	r5,r2
    ac90:	000b00c0 	call	b00c <altera_avalon_uart_close>
    ac94:	e037883a 	mov	sp,fp
    ac98:	dfc00117 	ldw	ra,4(sp)
    ac9c:	df000017 	ldw	fp,0(sp)
    aca0:	dec00204 	addi	sp,sp,8
    aca4:	f800283a 	ret

0000aca8 <altera_avalon_uart_init>:
    aca8:	defff804 	addi	sp,sp,-32
    acac:	dfc00715 	stw	ra,28(sp)
    acb0:	df000615 	stw	fp,24(sp)
    acb4:	df000604 	addi	fp,sp,24
    acb8:	e13ffd15 	stw	r4,-12(fp)
    acbc:	e17ffe15 	stw	r5,-8(fp)
    acc0:	e1bfff15 	stw	r6,-4(fp)
    acc4:	e0bffd17 	ldw	r2,-12(fp)
    acc8:	10800017 	ldw	r2,0(r2)
    accc:	e0bffb15 	stw	r2,-20(fp)
    acd0:	0005883a 	mov	r2,zero
    acd4:	1000041e 	bne	r2,zero,ace8 <altera_avalon_uart_init+0x40>
    acd8:	0005883a 	mov	r2,zero
    acdc:	1000021e 	bne	r2,zero,ace8 <altera_avalon_uart_init+0x40>
    ace0:	0005883a 	mov	r2,zero
    ace4:	10000226 	beq	r2,zero,acf0 <altera_avalon_uart_init+0x48>
    ace8:	00800044 	movi	r2,1
    acec:	00000106 	br	acf4 <altera_avalon_uart_init+0x4c>
    acf0:	0005883a 	mov	r2,zero
    acf4:	e0bffc15 	stw	r2,-16(fp)
    acf8:	e0bffc17 	ldw	r2,-16(fp)
    acfc:	10000f1e 	bne	r2,zero,ad3c <altera_avalon_uart_init+0x94>
    ad00:	e0bffd17 	ldw	r2,-12(fp)
    ad04:	00c32004 	movi	r3,3200
    ad08:	10c00115 	stw	r3,4(r2)
    ad0c:	e0bffb17 	ldw	r2,-20(fp)
    ad10:	10800304 	addi	r2,r2,12
    ad14:	e0fffd17 	ldw	r3,-12(fp)
    ad18:	18c00117 	ldw	r3,4(r3)
    ad1c:	10c00035 	stwio	r3,0(r2)
    ad20:	d8000015 	stw	zero,0(sp)
    ad24:	e13ffe17 	ldw	r4,-8(fp)
    ad28:	e17fff17 	ldw	r5,-4(fp)
    ad2c:	01800074 	movhi	r6,1
    ad30:	31ab5404 	addi	r6,r6,-21168
    ad34:	e1fffd17 	ldw	r7,-12(fp)
    ad38:	000b9180 	call	b918 <alt_ic_isr_register>
    ad3c:	e037883a 	mov	sp,fp
    ad40:	dfc00117 	ldw	ra,4(sp)
    ad44:	df000017 	ldw	fp,0(sp)
    ad48:	dec00204 	addi	sp,sp,8
    ad4c:	f800283a 	ret

0000ad50 <altera_avalon_uart_irq>:
    ad50:	defffa04 	addi	sp,sp,-24
    ad54:	dfc00515 	stw	ra,20(sp)
    ad58:	df000415 	stw	fp,16(sp)
    ad5c:	df000404 	addi	fp,sp,16
    ad60:	e13fff15 	stw	r4,-4(fp)
    ad64:	e0bfff17 	ldw	r2,-4(fp)
    ad68:	e0bffc15 	stw	r2,-16(fp)
    ad6c:	e0bffc17 	ldw	r2,-16(fp)
    ad70:	10800017 	ldw	r2,0(r2)
    ad74:	e0bffd15 	stw	r2,-12(fp)
    ad78:	e0bffd17 	ldw	r2,-12(fp)
    ad7c:	10800204 	addi	r2,r2,8
    ad80:	10800037 	ldwio	r2,0(r2)
    ad84:	e0bffe15 	stw	r2,-8(fp)
    ad88:	e0bffd17 	ldw	r2,-12(fp)
    ad8c:	10800204 	addi	r2,r2,8
    ad90:	0007883a 	mov	r3,zero
    ad94:	10c00035 	stwio	r3,0(r2)
    ad98:	e0bffd17 	ldw	r2,-12(fp)
    ad9c:	10800204 	addi	r2,r2,8
    ada0:	10800037 	ldwio	r2,0(r2)
    ada4:	e0bffe17 	ldw	r2,-8(fp)
    ada8:	1080200c 	andi	r2,r2,128
    adac:	10000326 	beq	r2,zero,adbc <altera_avalon_uart_irq+0x6c>
    adb0:	e13ffc17 	ldw	r4,-16(fp)
    adb4:	e17ffe17 	ldw	r5,-8(fp)
    adb8:	000ade80 	call	ade8 <altera_avalon_uart_rxirq>
    adbc:	e0bffe17 	ldw	r2,-8(fp)
    adc0:	1081100c 	andi	r2,r2,1088
    adc4:	10000326 	beq	r2,zero,add4 <altera_avalon_uart_irq+0x84>
    adc8:	e13ffc17 	ldw	r4,-16(fp)
    adcc:	e17ffe17 	ldw	r5,-8(fp)
    add0:	000aec80 	call	aec8 <altera_avalon_uart_txirq>
    add4:	e037883a 	mov	sp,fp
    add8:	dfc00117 	ldw	ra,4(sp)
    addc:	df000017 	ldw	fp,0(sp)
    ade0:	dec00204 	addi	sp,sp,8
    ade4:	f800283a 	ret

0000ade8 <altera_avalon_uart_rxirq>:
    ade8:	defffc04 	addi	sp,sp,-16
    adec:	df000315 	stw	fp,12(sp)
    adf0:	df000304 	addi	fp,sp,12
    adf4:	e13ffe15 	stw	r4,-8(fp)
    adf8:	e17fff15 	stw	r5,-4(fp)
    adfc:	e0bfff17 	ldw	r2,-4(fp)
    ae00:	108000cc 	andi	r2,r2,3
    ae04:	10000126 	beq	r2,zero,ae0c <altera_avalon_uart_rxirq+0x24>
    ae08:	00002b06 	br	aeb8 <altera_avalon_uart_rxirq+0xd0>
    ae0c:	e0bffe17 	ldw	r2,-8(fp)
    ae10:	10800317 	ldw	r2,12(r2)
    ae14:	e0bffe17 	ldw	r2,-8(fp)
    ae18:	10800217 	ldw	r2,8(r2)
    ae1c:	e0bffe17 	ldw	r2,-8(fp)
    ae20:	10800317 	ldw	r2,12(r2)
    ae24:	10800044 	addi	r2,r2,1
    ae28:	10800fcc 	andi	r2,r2,63
    ae2c:	e0bffd15 	stw	r2,-12(fp)
    ae30:	e0bffe17 	ldw	r2,-8(fp)
    ae34:	10800317 	ldw	r2,12(r2)
    ae38:	e0fffe17 	ldw	r3,-8(fp)
    ae3c:	18c00017 	ldw	r3,0(r3)
    ae40:	18c00037 	ldwio	r3,0(r3)
    ae44:	1809883a 	mov	r4,r3
    ae48:	e0fffe17 	ldw	r3,-8(fp)
    ae4c:	1885883a 	add	r2,r3,r2
    ae50:	10800704 	addi	r2,r2,28
    ae54:	11000005 	stb	r4,0(r2)
    ae58:	e0bffe17 	ldw	r2,-8(fp)
    ae5c:	e0fffd17 	ldw	r3,-12(fp)
    ae60:	10c00315 	stw	r3,12(r2)
    ae64:	e0bffe17 	ldw	r2,-8(fp)
    ae68:	10800317 	ldw	r2,12(r2)
    ae6c:	10800044 	addi	r2,r2,1
    ae70:	10800fcc 	andi	r2,r2,63
    ae74:	e0bffd15 	stw	r2,-12(fp)
    ae78:	e0bffe17 	ldw	r2,-8(fp)
    ae7c:	10c00217 	ldw	r3,8(r2)
    ae80:	e0bffd17 	ldw	r2,-12(fp)
    ae84:	18800c1e 	bne	r3,r2,aeb8 <altera_avalon_uart_rxirq+0xd0>
    ae88:	e0bffe17 	ldw	r2,-8(fp)
    ae8c:	10c00117 	ldw	r3,4(r2)
    ae90:	00bfdfc4 	movi	r2,-129
    ae94:	1886703a 	and	r3,r3,r2
    ae98:	e0bffe17 	ldw	r2,-8(fp)
    ae9c:	10c00115 	stw	r3,4(r2)
    aea0:	e0bffe17 	ldw	r2,-8(fp)
    aea4:	10800017 	ldw	r2,0(r2)
    aea8:	10800304 	addi	r2,r2,12
    aeac:	e0fffe17 	ldw	r3,-8(fp)
    aeb0:	18c00117 	ldw	r3,4(r3)
    aeb4:	10c00035 	stwio	r3,0(r2)
    aeb8:	e037883a 	mov	sp,fp
    aebc:	df000017 	ldw	fp,0(sp)
    aec0:	dec00104 	addi	sp,sp,4
    aec4:	f800283a 	ret

0000aec8 <altera_avalon_uart_txirq>:
    aec8:	defffb04 	addi	sp,sp,-20
    aecc:	df000415 	stw	fp,16(sp)
    aed0:	df000404 	addi	fp,sp,16
    aed4:	e13ffc15 	stw	r4,-16(fp)
    aed8:	e17ffd15 	stw	r5,-12(fp)
    aedc:	e0bffc17 	ldw	r2,-16(fp)
    aee0:	10c00417 	ldw	r3,16(r2)
    aee4:	e0bffc17 	ldw	r2,-16(fp)
    aee8:	10800517 	ldw	r2,20(r2)
    aeec:	18803226 	beq	r3,r2,afb8 <altera_avalon_uart_txirq+0xf0>
    aef0:	e0bffc17 	ldw	r2,-16(fp)
    aef4:	10800617 	ldw	r2,24(r2)
    aef8:	1080008c 	andi	r2,r2,2
    aefc:	10000326 	beq	r2,zero,af0c <altera_avalon_uart_txirq+0x44>
    af00:	e0bffd17 	ldw	r2,-12(fp)
    af04:	1082000c 	andi	r2,r2,2048
    af08:	10001d26 	beq	r2,zero,af80 <altera_avalon_uart_txirq+0xb8>
    af0c:	e0bffc17 	ldw	r2,-16(fp)
    af10:	10800417 	ldw	r2,16(r2)
    af14:	e0bffc17 	ldw	r2,-16(fp)
    af18:	10800517 	ldw	r2,20(r2)
    af1c:	e0bffc17 	ldw	r2,-16(fp)
    af20:	10800017 	ldw	r2,0(r2)
    af24:	10800104 	addi	r2,r2,4
    af28:	e0fffc17 	ldw	r3,-16(fp)
    af2c:	18c00417 	ldw	r3,16(r3)
    af30:	e13ffc17 	ldw	r4,-16(fp)
    af34:	20c7883a 	add	r3,r4,r3
    af38:	18c01704 	addi	r3,r3,92
    af3c:	18c00003 	ldbu	r3,0(r3)
    af40:	18c03fcc 	andi	r3,r3,255
    af44:	10c00035 	stwio	r3,0(r2)
    af48:	e0bffc17 	ldw	r2,-16(fp)
    af4c:	10800417 	ldw	r2,16(r2)
    af50:	10800044 	addi	r2,r2,1
    af54:	e0fffc17 	ldw	r3,-16(fp)
    af58:	18800415 	stw	r2,16(r3)
    af5c:	10c00fcc 	andi	r3,r2,63
    af60:	e0bffc17 	ldw	r2,-16(fp)
    af64:	10c00415 	stw	r3,16(r2)
    af68:	e0bffc17 	ldw	r2,-16(fp)
    af6c:	10800117 	ldw	r2,4(r2)
    af70:	10c01014 	ori	r3,r2,64
    af74:	e0bffc17 	ldw	r2,-16(fp)
    af78:	10c00115 	stw	r3,4(r2)
    af7c:	00000e06 	br	afb8 <altera_avalon_uart_txirq+0xf0>
    af80:	e0bffc17 	ldw	r2,-16(fp)
    af84:	10800017 	ldw	r2,0(r2)
    af88:	10800204 	addi	r2,r2,8
    af8c:	10800037 	ldwio	r2,0(r2)
    af90:	e0bffd15 	stw	r2,-12(fp)
    af94:	e0bffd17 	ldw	r2,-12(fp)
    af98:	1082000c 	andi	r2,r2,2048
    af9c:	1000061e 	bne	r2,zero,afb8 <altera_avalon_uart_txirq+0xf0>
    afa0:	e0bffc17 	ldw	r2,-16(fp)
    afa4:	10c00117 	ldw	r3,4(r2)
    afa8:	00bfefc4 	movi	r2,-65
    afac:	1886703a 	and	r3,r3,r2
    afb0:	e0bffc17 	ldw	r2,-16(fp)
    afb4:	10c00115 	stw	r3,4(r2)
    afb8:	e0bffc17 	ldw	r2,-16(fp)
    afbc:	10c00417 	ldw	r3,16(r2)
    afc0:	e0bffc17 	ldw	r2,-16(fp)
    afc4:	10800517 	ldw	r2,20(r2)
    afc8:	1880061e 	bne	r3,r2,afe4 <altera_avalon_uart_txirq+0x11c>
    afcc:	e0bffc17 	ldw	r2,-16(fp)
    afd0:	10c00117 	ldw	r3,4(r2)
    afd4:	00beefc4 	movi	r2,-1089
    afd8:	1886703a 	and	r3,r3,r2
    afdc:	e0bffc17 	ldw	r2,-16(fp)
    afe0:	10c00115 	stw	r3,4(r2)
    afe4:	e0bffc17 	ldw	r2,-16(fp)
    afe8:	10800017 	ldw	r2,0(r2)
    afec:	10800304 	addi	r2,r2,12
    aff0:	e0fffc17 	ldw	r3,-16(fp)
    aff4:	18c00117 	ldw	r3,4(r3)
    aff8:	10c00035 	stwio	r3,0(r2)
    affc:	e037883a 	mov	sp,fp
    b000:	df000017 	ldw	fp,0(sp)
    b004:	dec00104 	addi	sp,sp,4
    b008:	f800283a 	ret

0000b00c <altera_avalon_uart_close>:
    b00c:	defffd04 	addi	sp,sp,-12
    b010:	df000215 	stw	fp,8(sp)
    b014:	df000204 	addi	fp,sp,8
    b018:	e13ffe15 	stw	r4,-8(fp)
    b01c:	e17fff15 	stw	r5,-4(fp)
    b020:	00000506 	br	b038 <altera_avalon_uart_close+0x2c>
    b024:	e0bfff17 	ldw	r2,-4(fp)
    b028:	1090000c 	andi	r2,r2,16384
    b02c:	10000226 	beq	r2,zero,b038 <altera_avalon_uart_close+0x2c>
    b030:	00bffd44 	movi	r2,-11
    b034:	00000606 	br	b050 <altera_avalon_uart_close+0x44>
    b038:	e0bffe17 	ldw	r2,-8(fp)
    b03c:	10c00417 	ldw	r3,16(r2)
    b040:	e0bffe17 	ldw	r2,-8(fp)
    b044:	10800517 	ldw	r2,20(r2)
    b048:	18bff61e 	bne	r3,r2,b024 <_gp+0xffff692c>
    b04c:	0005883a 	mov	r2,zero
    b050:	e037883a 	mov	sp,fp
    b054:	df000017 	ldw	fp,0(sp)
    b058:	dec00104 	addi	sp,sp,4
    b05c:	f800283a 	ret

0000b060 <alt_get_errno>:
    b060:	defffe04 	addi	sp,sp,-8
    b064:	dfc00115 	stw	ra,4(sp)
    b068:	df000015 	stw	fp,0(sp)
    b06c:	d839883a 	mov	fp,sp
    b070:	00800074 	movhi	r2,1
    b074:	10b1c704 	addi	r2,r2,-14564
    b078:	10800017 	ldw	r2,0(r2)
    b07c:	10000526 	beq	r2,zero,b094 <alt_get_errno+0x34>
    b080:	00800074 	movhi	r2,1
    b084:	10b1c704 	addi	r2,r2,-14564
    b088:	10800017 	ldw	r2,0(r2)
    b08c:	103ee83a 	callr	r2
    b090:	00000206 	br	b09c <alt_get_errno+0x3c>
    b094:	00800074 	movhi	r2,1
    b098:	10b38e04 	addi	r2,r2,-12744
    b09c:	e037883a 	mov	sp,fp
    b0a0:	dfc00117 	ldw	ra,4(sp)
    b0a4:	df000017 	ldw	fp,0(sp)
    b0a8:	dec00204 	addi	sp,sp,8
    b0ac:	f800283a 	ret

0000b0b0 <altera_avalon_uart_read>:
    b0b0:	defff204 	addi	sp,sp,-56
    b0b4:	dfc00d15 	stw	ra,52(sp)
    b0b8:	df000c15 	stw	fp,48(sp)
    b0bc:	df000c04 	addi	fp,sp,48
    b0c0:	e13ffc15 	stw	r4,-16(fp)
    b0c4:	e17ffd15 	stw	r5,-12(fp)
    b0c8:	e1bffe15 	stw	r6,-8(fp)
    b0cc:	e1ffff15 	stw	r7,-4(fp)
    b0d0:	e03ff405 	stb	zero,-48(fp)
    b0d4:	e03ff515 	stw	zero,-44(fp)
    b0d8:	e0bfff17 	ldw	r2,-4(fp)
    b0dc:	1090000c 	andi	r2,r2,16384
    b0e0:	1005003a 	cmpeq	r2,r2,zero
    b0e4:	10803fcc 	andi	r2,r2,255
    b0e8:	e0bff615 	stw	r2,-40(fp)
    b0ec:	00001306 	br	b13c <altera_avalon_uart_read+0x8c>
    b0f0:	e0bff517 	ldw	r2,-44(fp)
    b0f4:	10800044 	addi	r2,r2,1
    b0f8:	e0bff515 	stw	r2,-44(fp)
    b0fc:	e0bffd17 	ldw	r2,-12(fp)
    b100:	10c00044 	addi	r3,r2,1
    b104:	e0fffd15 	stw	r3,-12(fp)
    b108:	e0fffc17 	ldw	r3,-16(fp)
    b10c:	18c00217 	ldw	r3,8(r3)
    b110:	e13ffc17 	ldw	r4,-16(fp)
    b114:	20c7883a 	add	r3,r4,r3
    b118:	18c00704 	addi	r3,r3,28
    b11c:	18c00003 	ldbu	r3,0(r3)
    b120:	10c00005 	stb	r3,0(r2)
    b124:	e0bffc17 	ldw	r2,-16(fp)
    b128:	10800217 	ldw	r2,8(r2)
    b12c:	10800044 	addi	r2,r2,1
    b130:	10c00fcc 	andi	r3,r2,63
    b134:	e0bffc17 	ldw	r2,-16(fp)
    b138:	10c00215 	stw	r3,8(r2)
    b13c:	e0fff517 	ldw	r3,-44(fp)
    b140:	e0bffe17 	ldw	r2,-8(fp)
    b144:	1880050e 	bge	r3,r2,b15c <altera_avalon_uart_read+0xac>
    b148:	e0bffc17 	ldw	r2,-16(fp)
    b14c:	10c00217 	ldw	r3,8(r2)
    b150:	e0bffc17 	ldw	r2,-16(fp)
    b154:	10800317 	ldw	r2,12(r2)
    b158:	18bfe51e 	bne	r3,r2,b0f0 <_gp+0xffff69f8>
    b15c:	e0bff517 	ldw	r2,-44(fp)
    b160:	1000251e 	bne	r2,zero,b1f8 <altera_avalon_uart_read+0x148>
    b164:	e0bffc17 	ldw	r2,-16(fp)
    b168:	10c00217 	ldw	r3,8(r2)
    b16c:	e0bffc17 	ldw	r2,-16(fp)
    b170:	10800317 	ldw	r2,12(r2)
    b174:	1880201e 	bne	r3,r2,b1f8 <altera_avalon_uart_read+0x148>
    b178:	e0bff617 	ldw	r2,-40(fp)
    b17c:	1000071e 	bne	r2,zero,b19c <altera_avalon_uart_read+0xec>
    b180:	000b0600 	call	b060 <alt_get_errno>
    b184:	1007883a 	mov	r3,r2
    b188:	008002c4 	movi	r2,11
    b18c:	18800015 	stw	r2,0(r3)
    b190:	00800044 	movi	r2,1
    b194:	e0bff405 	stb	r2,-48(fp)
    b198:	00001b06 	br	b208 <altera_avalon_uart_read+0x158>
    b19c:	0005303a 	rdctl	r2,status
    b1a0:	e0bff815 	stw	r2,-32(fp)
    b1a4:	e0fff817 	ldw	r3,-32(fp)
    b1a8:	00bfff84 	movi	r2,-2
    b1ac:	1884703a 	and	r2,r3,r2
    b1b0:	1001703a 	wrctl	status,r2
    b1b4:	e0bff817 	ldw	r2,-32(fp)
    b1b8:	e0bff715 	stw	r2,-36(fp)
    b1bc:	e0bffc17 	ldw	r2,-16(fp)
    b1c0:	10800117 	ldw	r2,4(r2)
    b1c4:	10c02014 	ori	r3,r2,128
    b1c8:	e0bffc17 	ldw	r2,-16(fp)
    b1cc:	10c00115 	stw	r3,4(r2)
    b1d0:	e0bffc17 	ldw	r2,-16(fp)
    b1d4:	10800017 	ldw	r2,0(r2)
    b1d8:	10800304 	addi	r2,r2,12
    b1dc:	e0fffc17 	ldw	r3,-16(fp)
    b1e0:	18c00117 	ldw	r3,4(r3)
    b1e4:	10c00035 	stwio	r3,0(r2)
    b1e8:	e0bff717 	ldw	r2,-36(fp)
    b1ec:	e0bff915 	stw	r2,-28(fp)
    b1f0:	e0bff917 	ldw	r2,-28(fp)
    b1f4:	1001703a 	wrctl	status,r2
    b1f8:	e0bff517 	ldw	r2,-44(fp)
    b1fc:	1000021e 	bne	r2,zero,b208 <altera_avalon_uart_read+0x158>
    b200:	e0bffe17 	ldw	r2,-8(fp)
    b204:	103fb91e 	bne	r2,zero,b0ec <_gp+0xffff69f4>
    b208:	0005303a 	rdctl	r2,status
    b20c:	e0bffa15 	stw	r2,-24(fp)
    b210:	e0fffa17 	ldw	r3,-24(fp)
    b214:	00bfff84 	movi	r2,-2
    b218:	1884703a 	and	r2,r3,r2
    b21c:	1001703a 	wrctl	status,r2
    b220:	e0bffa17 	ldw	r2,-24(fp)
    b224:	e0bff715 	stw	r2,-36(fp)
    b228:	e0bffc17 	ldw	r2,-16(fp)
    b22c:	10800117 	ldw	r2,4(r2)
    b230:	10c02014 	ori	r3,r2,128
    b234:	e0bffc17 	ldw	r2,-16(fp)
    b238:	10c00115 	stw	r3,4(r2)
    b23c:	e0bffc17 	ldw	r2,-16(fp)
    b240:	10800017 	ldw	r2,0(r2)
    b244:	10800304 	addi	r2,r2,12
    b248:	e0fffc17 	ldw	r3,-16(fp)
    b24c:	18c00117 	ldw	r3,4(r3)
    b250:	10c00035 	stwio	r3,0(r2)
    b254:	e0bff717 	ldw	r2,-36(fp)
    b258:	e0bffb15 	stw	r2,-20(fp)
    b25c:	e0bffb17 	ldw	r2,-20(fp)
    b260:	1001703a 	wrctl	status,r2
    b264:	e0bff403 	ldbu	r2,-48(fp)
    b268:	10000226 	beq	r2,zero,b274 <altera_avalon_uart_read+0x1c4>
    b26c:	00bffd44 	movi	r2,-11
    b270:	00000106 	br	b278 <altera_avalon_uart_read+0x1c8>
    b274:	e0bff517 	ldw	r2,-44(fp)
    b278:	e037883a 	mov	sp,fp
    b27c:	dfc00117 	ldw	ra,4(sp)
    b280:	df000017 	ldw	fp,0(sp)
    b284:	dec00204 	addi	sp,sp,8
    b288:	f800283a 	ret

0000b28c <alt_get_errno>:
    b28c:	defffe04 	addi	sp,sp,-8
    b290:	dfc00115 	stw	ra,4(sp)
    b294:	df000015 	stw	fp,0(sp)
    b298:	d839883a 	mov	fp,sp
    b29c:	00800074 	movhi	r2,1
    b2a0:	10b1c704 	addi	r2,r2,-14564
    b2a4:	10800017 	ldw	r2,0(r2)
    b2a8:	10000526 	beq	r2,zero,b2c0 <alt_get_errno+0x34>
    b2ac:	00800074 	movhi	r2,1
    b2b0:	10b1c704 	addi	r2,r2,-14564
    b2b4:	10800017 	ldw	r2,0(r2)
    b2b8:	103ee83a 	callr	r2
    b2bc:	00000206 	br	b2c8 <alt_get_errno+0x3c>
    b2c0:	00800074 	movhi	r2,1
    b2c4:	10b38e04 	addi	r2,r2,-12744
    b2c8:	e037883a 	mov	sp,fp
    b2cc:	dfc00117 	ldw	ra,4(sp)
    b2d0:	df000017 	ldw	fp,0(sp)
    b2d4:	dec00204 	addi	sp,sp,8
    b2d8:	f800283a 	ret

0000b2dc <altera_avalon_uart_write>:
    b2dc:	defff204 	addi	sp,sp,-56
    b2e0:	dfc00d15 	stw	ra,52(sp)
    b2e4:	df000c15 	stw	fp,48(sp)
    b2e8:	df000c04 	addi	fp,sp,48
    b2ec:	e13ffc15 	stw	r4,-16(fp)
    b2f0:	e17ffd15 	stw	r5,-12(fp)
    b2f4:	e1bffe15 	stw	r6,-8(fp)
    b2f8:	e1ffff15 	stw	r7,-4(fp)
    b2fc:	e0bffe17 	ldw	r2,-8(fp)
    b300:	e0bff415 	stw	r2,-48(fp)
    b304:	e0bfff17 	ldw	r2,-4(fp)
    b308:	1090000c 	andi	r2,r2,16384
    b30c:	e0bff515 	stw	r2,-44(fp)
    b310:	00003c06 	br	b404 <altera_avalon_uart_write+0x128>
    b314:	e0bffc17 	ldw	r2,-16(fp)
    b318:	10800517 	ldw	r2,20(r2)
    b31c:	10800044 	addi	r2,r2,1
    b320:	10800fcc 	andi	r2,r2,63
    b324:	e0bff615 	stw	r2,-40(fp)
    b328:	e0bffc17 	ldw	r2,-16(fp)
    b32c:	10c00417 	ldw	r3,16(r2)
    b330:	e0bff617 	ldw	r2,-40(fp)
    b334:	1880221e 	bne	r3,r2,b3c0 <altera_avalon_uart_write+0xe4>
    b338:	e0bff517 	ldw	r2,-44(fp)
    b33c:	10000526 	beq	r2,zero,b354 <altera_avalon_uart_write+0x78>
    b340:	000b28c0 	call	b28c <alt_get_errno>
    b344:	1007883a 	mov	r3,r2
    b348:	008002c4 	movi	r2,11
    b34c:	18800015 	stw	r2,0(r3)
    b350:	00002e06 	br	b40c <altera_avalon_uart_write+0x130>
    b354:	0005303a 	rdctl	r2,status
    b358:	e0bff815 	stw	r2,-32(fp)
    b35c:	e0fff817 	ldw	r3,-32(fp)
    b360:	00bfff84 	movi	r2,-2
    b364:	1884703a 	and	r2,r3,r2
    b368:	1001703a 	wrctl	status,r2
    b36c:	e0bff817 	ldw	r2,-32(fp)
    b370:	e0bff715 	stw	r2,-36(fp)
    b374:	e0bffc17 	ldw	r2,-16(fp)
    b378:	10800117 	ldw	r2,4(r2)
    b37c:	10c11014 	ori	r3,r2,1088
    b380:	e0bffc17 	ldw	r2,-16(fp)
    b384:	10c00115 	stw	r3,4(r2)
    b388:	e0bffc17 	ldw	r2,-16(fp)
    b38c:	10800017 	ldw	r2,0(r2)
    b390:	10800304 	addi	r2,r2,12
    b394:	e0fffc17 	ldw	r3,-16(fp)
    b398:	18c00117 	ldw	r3,4(r3)
    b39c:	10c00035 	stwio	r3,0(r2)
    b3a0:	e0bff717 	ldw	r2,-36(fp)
    b3a4:	e0bff915 	stw	r2,-28(fp)
    b3a8:	e0bff917 	ldw	r2,-28(fp)
    b3ac:	1001703a 	wrctl	status,r2
    b3b0:	e0bffc17 	ldw	r2,-16(fp)
    b3b4:	10c00417 	ldw	r3,16(r2)
    b3b8:	e0bff617 	ldw	r2,-40(fp)
    b3bc:	18bffc26 	beq	r3,r2,b3b0 <_gp+0xffff6cb8>
    b3c0:	e0bff417 	ldw	r2,-48(fp)
    b3c4:	10bfffc4 	addi	r2,r2,-1
    b3c8:	e0bff415 	stw	r2,-48(fp)
    b3cc:	e0bffc17 	ldw	r2,-16(fp)
    b3d0:	10c00517 	ldw	r3,20(r2)
    b3d4:	e0bffd17 	ldw	r2,-12(fp)
    b3d8:	11000044 	addi	r4,r2,1
    b3dc:	e13ffd15 	stw	r4,-12(fp)
    b3e0:	10800003 	ldbu	r2,0(r2)
    b3e4:	1009883a 	mov	r4,r2
    b3e8:	e0bffc17 	ldw	r2,-16(fp)
    b3ec:	10c5883a 	add	r2,r2,r3
    b3f0:	10801704 	addi	r2,r2,92
    b3f4:	11000005 	stb	r4,0(r2)
    b3f8:	e0bffc17 	ldw	r2,-16(fp)
    b3fc:	e0fff617 	ldw	r3,-40(fp)
    b400:	10c00515 	stw	r3,20(r2)
    b404:	e0bff417 	ldw	r2,-48(fp)
    b408:	103fc21e 	bne	r2,zero,b314 <_gp+0xffff6c1c>
    b40c:	0005303a 	rdctl	r2,status
    b410:	e0bffa15 	stw	r2,-24(fp)
    b414:	e0fffa17 	ldw	r3,-24(fp)
    b418:	00bfff84 	movi	r2,-2
    b41c:	1884703a 	and	r2,r3,r2
    b420:	1001703a 	wrctl	status,r2
    b424:	e0bffa17 	ldw	r2,-24(fp)
    b428:	e0bff715 	stw	r2,-36(fp)
    b42c:	e0bffc17 	ldw	r2,-16(fp)
    b430:	10800117 	ldw	r2,4(r2)
    b434:	10c11014 	ori	r3,r2,1088
    b438:	e0bffc17 	ldw	r2,-16(fp)
    b43c:	10c00115 	stw	r3,4(r2)
    b440:	e0bffc17 	ldw	r2,-16(fp)
    b444:	10800017 	ldw	r2,0(r2)
    b448:	10800304 	addi	r2,r2,12
    b44c:	e0fffc17 	ldw	r3,-16(fp)
    b450:	18c00117 	ldw	r3,4(r3)
    b454:	10c00035 	stwio	r3,0(r2)
    b458:	e0bff717 	ldw	r2,-36(fp)
    b45c:	e0bffb15 	stw	r2,-20(fp)
    b460:	e0bffb17 	ldw	r2,-20(fp)
    b464:	1001703a 	wrctl	status,r2
    b468:	e0fffe17 	ldw	r3,-8(fp)
    b46c:	e0bff417 	ldw	r2,-48(fp)
    b470:	1885c83a 	sub	r2,r3,r2
    b474:	e037883a 	mov	sp,fp
    b478:	dfc00117 	ldw	ra,4(sp)
    b47c:	df000017 	ldw	fp,0(sp)
    b480:	dec00204 	addi	sp,sp,8
    b484:	f800283a 	ret

0000b488 <alt_busy_sleep>:
    b488:	defffa04 	addi	sp,sp,-24
    b48c:	dfc00515 	stw	ra,20(sp)
    b490:	df000415 	stw	fp,16(sp)
    b494:	df000404 	addi	fp,sp,16
    b498:	e13fff15 	stw	r4,-4(fp)
    b49c:	00800244 	movi	r2,9
    b4a0:	e0bffd15 	stw	r2,-12(fp)
    b4a4:	e13ffd17 	ldw	r4,-12(fp)
    b4a8:	014003f4 	movhi	r5,15
    b4ac:	29509004 	addi	r5,r5,16960
    b4b0:	000a4d80 	call	a4d8 <__mulsi3>
    b4b4:	01017db4 	movhi	r4,1526
    b4b8:	21384004 	addi	r4,r4,-7936
    b4bc:	100b883a 	mov	r5,r2
    b4c0:	000a4c80 	call	a4c8 <__udivsi3>
    b4c4:	01200034 	movhi	r4,32768
    b4c8:	213fffc4 	addi	r4,r4,-1
    b4cc:	100b883a 	mov	r5,r2
    b4d0:	000a4c80 	call	a4c8 <__udivsi3>
    b4d4:	e13fff17 	ldw	r4,-4(fp)
    b4d8:	100b883a 	mov	r5,r2
    b4dc:	000a4c80 	call	a4c8 <__udivsi3>
    b4e0:	e0bffe15 	stw	r2,-8(fp)
    b4e4:	e0bffe17 	ldw	r2,-8(fp)
    b4e8:	10002a26 	beq	r2,zero,b594 <alt_busy_sleep+0x10c>
    b4ec:	e03ffc15 	stw	zero,-16(fp)
    b4f0:	00001706 	br	b550 <alt_busy_sleep+0xc8>
    b4f4:	00a00034 	movhi	r2,32768
    b4f8:	10bfffc4 	addi	r2,r2,-1
    b4fc:	10bfffc4 	addi	r2,r2,-1
    b500:	103ffe1e 	bne	r2,zero,b4fc <_gp+0xffff6e04>
    b504:	e13ffd17 	ldw	r4,-12(fp)
    b508:	014003f4 	movhi	r5,15
    b50c:	29509004 	addi	r5,r5,16960
    b510:	000a4d80 	call	a4d8 <__mulsi3>
    b514:	01017db4 	movhi	r4,1526
    b518:	21384004 	addi	r4,r4,-7936
    b51c:	100b883a 	mov	r5,r2
    b520:	000a4c80 	call	a4c8 <__udivsi3>
    b524:	01200034 	movhi	r4,32768
    b528:	213fffc4 	addi	r4,r4,-1
    b52c:	100b883a 	mov	r5,r2
    b530:	000a4c80 	call	a4c8 <__udivsi3>
    b534:	1007883a 	mov	r3,r2
    b538:	e0bfff17 	ldw	r2,-4(fp)
    b53c:	10c5c83a 	sub	r2,r2,r3
    b540:	e0bfff15 	stw	r2,-4(fp)
    b544:	e0bffc17 	ldw	r2,-16(fp)
    b548:	10800044 	addi	r2,r2,1
    b54c:	e0bffc15 	stw	r2,-16(fp)
    b550:	e0fffc17 	ldw	r3,-16(fp)
    b554:	e0bffe17 	ldw	r2,-8(fp)
    b558:	18bfe616 	blt	r3,r2,b4f4 <_gp+0xffff6dfc>
    b55c:	e13ffd17 	ldw	r4,-12(fp)
    b560:	014003f4 	movhi	r5,15
    b564:	29509004 	addi	r5,r5,16960
    b568:	000a4d80 	call	a4d8 <__mulsi3>
    b56c:	01017db4 	movhi	r4,1526
    b570:	21384004 	addi	r4,r4,-7936
    b574:	100b883a 	mov	r5,r2
    b578:	000a4c80 	call	a4c8 <__udivsi3>
    b57c:	1009883a 	mov	r4,r2
    b580:	e17fff17 	ldw	r5,-4(fp)
    b584:	000a4d80 	call	a4d8 <__mulsi3>
    b588:	10bfffc4 	addi	r2,r2,-1
    b58c:	103ffe1e 	bne	r2,zero,b588 <_gp+0xffff6e90>
    b590:	00000d06 	br	b5c8 <alt_busy_sleep+0x140>
    b594:	e13ffd17 	ldw	r4,-12(fp)
    b598:	014003f4 	movhi	r5,15
    b59c:	29509004 	addi	r5,r5,16960
    b5a0:	000a4d80 	call	a4d8 <__mulsi3>
    b5a4:	01017db4 	movhi	r4,1526
    b5a8:	21384004 	addi	r4,r4,-7936
    b5ac:	100b883a 	mov	r5,r2
    b5b0:	000a4c80 	call	a4c8 <__udivsi3>
    b5b4:	1009883a 	mov	r4,r2
    b5b8:	e17fff17 	ldw	r5,-4(fp)
    b5bc:	000a4d80 	call	a4d8 <__mulsi3>
    b5c0:	10bfffc4 	addi	r2,r2,-1
    b5c4:	00bffe16 	blt	zero,r2,b5c0 <_gp+0xffff6ec8>
    b5c8:	0005883a 	mov	r2,zero
    b5cc:	e037883a 	mov	sp,fp
    b5d0:	dfc00117 	ldw	ra,4(sp)
    b5d4:	df000017 	ldw	fp,0(sp)
    b5d8:	dec00204 	addi	sp,sp,8
    b5dc:	f800283a 	ret

0000b5e0 <alt_get_errno>:
    b5e0:	defffe04 	addi	sp,sp,-8
    b5e4:	dfc00115 	stw	ra,4(sp)
    b5e8:	df000015 	stw	fp,0(sp)
    b5ec:	d839883a 	mov	fp,sp
    b5f0:	00800074 	movhi	r2,1
    b5f4:	10b1c704 	addi	r2,r2,-14564
    b5f8:	10800017 	ldw	r2,0(r2)
    b5fc:	10000526 	beq	r2,zero,b614 <alt_get_errno+0x34>
    b600:	00800074 	movhi	r2,1
    b604:	10b1c704 	addi	r2,r2,-14564
    b608:	10800017 	ldw	r2,0(r2)
    b60c:	103ee83a 	callr	r2
    b610:	00000206 	br	b61c <alt_get_errno+0x3c>
    b614:	00800074 	movhi	r2,1
    b618:	10b38e04 	addi	r2,r2,-12744
    b61c:	e037883a 	mov	sp,fp
    b620:	dfc00117 	ldw	ra,4(sp)
    b624:	df000017 	ldw	fp,0(sp)
    b628:	dec00204 	addi	sp,sp,8
    b62c:	f800283a 	ret

0000b630 <close>:
    b630:	defffb04 	addi	sp,sp,-20
    b634:	dfc00415 	stw	ra,16(sp)
    b638:	df000315 	stw	fp,12(sp)
    b63c:	df000304 	addi	fp,sp,12
    b640:	e13fff15 	stw	r4,-4(fp)
    b644:	e0bfff17 	ldw	r2,-4(fp)
    b648:	10000816 	blt	r2,zero,b66c <close+0x3c>
    b64c:	e13fff17 	ldw	r4,-4(fp)
    b650:	01400304 	movi	r5,12
    b654:	000a4d80 	call	a4d8 <__mulsi3>
    b658:	1007883a 	mov	r3,r2
    b65c:	00800074 	movhi	r2,1
    b660:	10b05504 	addi	r2,r2,-16044
    b664:	1885883a 	add	r2,r3,r2
    b668:	00000106 	br	b670 <close+0x40>
    b66c:	0005883a 	mov	r2,zero
    b670:	e0bffd15 	stw	r2,-12(fp)
    b674:	e0bffd17 	ldw	r2,-12(fp)
    b678:	10001926 	beq	r2,zero,b6e0 <close+0xb0>
    b67c:	e0bffd17 	ldw	r2,-12(fp)
    b680:	10800017 	ldw	r2,0(r2)
    b684:	10800417 	ldw	r2,16(r2)
    b688:	10000626 	beq	r2,zero,b6a4 <close+0x74>
    b68c:	e0bffd17 	ldw	r2,-12(fp)
    b690:	10800017 	ldw	r2,0(r2)
    b694:	10800417 	ldw	r2,16(r2)
    b698:	e13ffd17 	ldw	r4,-12(fp)
    b69c:	103ee83a 	callr	r2
    b6a0:	00000106 	br	b6a8 <close+0x78>
    b6a4:	0005883a 	mov	r2,zero
    b6a8:	e0bffe15 	stw	r2,-8(fp)
    b6ac:	e13fff17 	ldw	r4,-4(fp)
    b6b0:	000bbe80 	call	bbe8 <alt_release_fd>
    b6b4:	e0bffe17 	ldw	r2,-8(fp)
    b6b8:	1000070e 	bge	r2,zero,b6d8 <close+0xa8>
    b6bc:	000b5e00 	call	b5e0 <alt_get_errno>
    b6c0:	1007883a 	mov	r3,r2
    b6c4:	e0bffe17 	ldw	r2,-8(fp)
    b6c8:	0085c83a 	sub	r2,zero,r2
    b6cc:	18800015 	stw	r2,0(r3)
    b6d0:	00bfffc4 	movi	r2,-1
    b6d4:	00000706 	br	b6f4 <close+0xc4>
    b6d8:	0005883a 	mov	r2,zero
    b6dc:	00000506 	br	b6f4 <close+0xc4>
    b6e0:	000b5e00 	call	b5e0 <alt_get_errno>
    b6e4:	1007883a 	mov	r3,r2
    b6e8:	00801444 	movi	r2,81
    b6ec:	18800015 	stw	r2,0(r3)
    b6f0:	00bfffc4 	movi	r2,-1
    b6f4:	e037883a 	mov	sp,fp
    b6f8:	dfc00117 	ldw	ra,4(sp)
    b6fc:	df000017 	ldw	fp,0(sp)
    b700:	dec00204 	addi	sp,sp,8
    b704:	f800283a 	ret

0000b708 <alt_dcache_flush_all>:
    b708:	deffff04 	addi	sp,sp,-4
    b70c:	df000015 	stw	fp,0(sp)
    b710:	d839883a 	mov	fp,sp
    b714:	e037883a 	mov	sp,fp
    b718:	df000017 	ldw	fp,0(sp)
    b71c:	dec00104 	addi	sp,sp,4
    b720:	f800283a 	ret

0000b724 <alt_dev_null_write>:
    b724:	defffc04 	addi	sp,sp,-16
    b728:	df000315 	stw	fp,12(sp)
    b72c:	df000304 	addi	fp,sp,12
    b730:	e13ffd15 	stw	r4,-12(fp)
    b734:	e17ffe15 	stw	r5,-8(fp)
    b738:	e1bfff15 	stw	r6,-4(fp)
    b73c:	e0bfff17 	ldw	r2,-4(fp)
    b740:	e037883a 	mov	sp,fp
    b744:	df000017 	ldw	fp,0(sp)
    b748:	dec00104 	addi	sp,sp,4
    b74c:	f800283a 	ret

0000b750 <alt_get_errno>:
    b750:	defffe04 	addi	sp,sp,-8
    b754:	dfc00115 	stw	ra,4(sp)
    b758:	df000015 	stw	fp,0(sp)
    b75c:	d839883a 	mov	fp,sp
    b760:	00800074 	movhi	r2,1
    b764:	10b1c704 	addi	r2,r2,-14564
    b768:	10800017 	ldw	r2,0(r2)
    b76c:	10000526 	beq	r2,zero,b784 <alt_get_errno+0x34>
    b770:	00800074 	movhi	r2,1
    b774:	10b1c704 	addi	r2,r2,-14564
    b778:	10800017 	ldw	r2,0(r2)
    b77c:	103ee83a 	callr	r2
    b780:	00000206 	br	b78c <alt_get_errno+0x3c>
    b784:	00800074 	movhi	r2,1
    b788:	10b38e04 	addi	r2,r2,-12744
    b78c:	e037883a 	mov	sp,fp
    b790:	dfc00117 	ldw	ra,4(sp)
    b794:	df000017 	ldw	fp,0(sp)
    b798:	dec00204 	addi	sp,sp,8
    b79c:	f800283a 	ret

0000b7a0 <alt_dev_llist_insert>:
    b7a0:	defffa04 	addi	sp,sp,-24
    b7a4:	dfc00515 	stw	ra,20(sp)
    b7a8:	df000415 	stw	fp,16(sp)
    b7ac:	df000404 	addi	fp,sp,16
    b7b0:	e13ffe15 	stw	r4,-8(fp)
    b7b4:	e17fff15 	stw	r5,-4(fp)
    b7b8:	e0bffe17 	ldw	r2,-8(fp)
    b7bc:	10000326 	beq	r2,zero,b7cc <alt_dev_llist_insert+0x2c>
    b7c0:	e0bffe17 	ldw	r2,-8(fp)
    b7c4:	10800217 	ldw	r2,8(r2)
    b7c8:	1000061e 	bne	r2,zero,b7e4 <alt_dev_llist_insert+0x44>
    b7cc:	000b7500 	call	b750 <alt_get_errno>
    b7d0:	1007883a 	mov	r3,r2
    b7d4:	00800584 	movi	r2,22
    b7d8:	18800015 	stw	r2,0(r3)
    b7dc:	00bffa84 	movi	r2,-22
    b7e0:	00001306 	br	b830 <alt_dev_llist_insert+0x90>
    b7e4:	e0bffe17 	ldw	r2,-8(fp)
    b7e8:	e0ffff17 	ldw	r3,-4(fp)
    b7ec:	e0fffc15 	stw	r3,-16(fp)
    b7f0:	e0bffd15 	stw	r2,-12(fp)
    b7f4:	e0bffd17 	ldw	r2,-12(fp)
    b7f8:	e0fffc17 	ldw	r3,-16(fp)
    b7fc:	10c00115 	stw	r3,4(r2)
    b800:	e0bffc17 	ldw	r2,-16(fp)
    b804:	10c00017 	ldw	r3,0(r2)
    b808:	e0bffd17 	ldw	r2,-12(fp)
    b80c:	10c00015 	stw	r3,0(r2)
    b810:	e0bffc17 	ldw	r2,-16(fp)
    b814:	10800017 	ldw	r2,0(r2)
    b818:	e0fffd17 	ldw	r3,-12(fp)
    b81c:	10c00115 	stw	r3,4(r2)
    b820:	e0bffc17 	ldw	r2,-16(fp)
    b824:	e0fffd17 	ldw	r3,-12(fp)
    b828:	10c00015 	stw	r3,0(r2)
    b82c:	0005883a 	mov	r2,zero
    b830:	e037883a 	mov	sp,fp
    b834:	dfc00117 	ldw	ra,4(sp)
    b838:	df000017 	ldw	fp,0(sp)
    b83c:	dec00204 	addi	sp,sp,8
    b840:	f800283a 	ret

0000b844 <_do_ctors>:
    b844:	defffd04 	addi	sp,sp,-12
    b848:	dfc00215 	stw	ra,8(sp)
    b84c:	df000115 	stw	fp,4(sp)
    b850:	df000104 	addi	fp,sp,4
    b854:	00800074 	movhi	r2,1
    b858:	10b01204 	addi	r2,r2,-16312
    b85c:	e0bfff15 	stw	r2,-4(fp)
    b860:	00000606 	br	b87c <_do_ctors+0x38>
    b864:	e0bfff17 	ldw	r2,-4(fp)
    b868:	10800017 	ldw	r2,0(r2)
    b86c:	103ee83a 	callr	r2
    b870:	e0bfff17 	ldw	r2,-4(fp)
    b874:	10bfff04 	addi	r2,r2,-4
    b878:	e0bfff15 	stw	r2,-4(fp)
    b87c:	e0ffff17 	ldw	r3,-4(fp)
    b880:	00800074 	movhi	r2,1
    b884:	10b01304 	addi	r2,r2,-16308
    b888:	18bff62e 	bgeu	r3,r2,b864 <_gp+0xffff716c>
    b88c:	e037883a 	mov	sp,fp
    b890:	dfc00117 	ldw	ra,4(sp)
    b894:	df000017 	ldw	fp,0(sp)
    b898:	dec00204 	addi	sp,sp,8
    b89c:	f800283a 	ret

0000b8a0 <_do_dtors>:
    b8a0:	defffd04 	addi	sp,sp,-12
    b8a4:	dfc00215 	stw	ra,8(sp)
    b8a8:	df000115 	stw	fp,4(sp)
    b8ac:	df000104 	addi	fp,sp,4
    b8b0:	00800074 	movhi	r2,1
    b8b4:	10b01204 	addi	r2,r2,-16312
    b8b8:	e0bfff15 	stw	r2,-4(fp)
    b8bc:	00000606 	br	b8d8 <_do_dtors+0x38>
    b8c0:	e0bfff17 	ldw	r2,-4(fp)
    b8c4:	10800017 	ldw	r2,0(r2)
    b8c8:	103ee83a 	callr	r2
    b8cc:	e0bfff17 	ldw	r2,-4(fp)
    b8d0:	10bfff04 	addi	r2,r2,-4
    b8d4:	e0bfff15 	stw	r2,-4(fp)
    b8d8:	e0ffff17 	ldw	r3,-4(fp)
    b8dc:	00800074 	movhi	r2,1
    b8e0:	10b01304 	addi	r2,r2,-16308
    b8e4:	18bff62e 	bgeu	r3,r2,b8c0 <_gp+0xffff71c8>
    b8e8:	e037883a 	mov	sp,fp
    b8ec:	dfc00117 	ldw	ra,4(sp)
    b8f0:	df000017 	ldw	fp,0(sp)
    b8f4:	dec00204 	addi	sp,sp,8
    b8f8:	f800283a 	ret

0000b8fc <alt_icache_flush_all>:
    b8fc:	deffff04 	addi	sp,sp,-4
    b900:	df000015 	stw	fp,0(sp)
    b904:	d839883a 	mov	fp,sp
    b908:	e037883a 	mov	sp,fp
    b90c:	df000017 	ldw	fp,0(sp)
    b910:	dec00104 	addi	sp,sp,4
    b914:	f800283a 	ret

0000b918 <alt_ic_isr_register>:
    b918:	defff904 	addi	sp,sp,-28
    b91c:	dfc00615 	stw	ra,24(sp)
    b920:	df000515 	stw	fp,20(sp)
    b924:	df000504 	addi	fp,sp,20
    b928:	e13ffc15 	stw	r4,-16(fp)
    b92c:	e17ffd15 	stw	r5,-12(fp)
    b930:	e1bffe15 	stw	r6,-8(fp)
    b934:	e1ffff15 	stw	r7,-4(fp)
    b938:	e0800217 	ldw	r2,8(fp)
    b93c:	d8800015 	stw	r2,0(sp)
    b940:	e13ffc17 	ldw	r4,-16(fp)
    b944:	e17ffd17 	ldw	r5,-12(fp)
    b948:	e1bffe17 	ldw	r6,-8(fp)
    b94c:	e1ffff17 	ldw	r7,-4(fp)
    b950:	000baf80 	call	baf8 <alt_iic_isr_register>
    b954:	e037883a 	mov	sp,fp
    b958:	dfc00117 	ldw	ra,4(sp)
    b95c:	df000017 	ldw	fp,0(sp)
    b960:	dec00204 	addi	sp,sp,8
    b964:	f800283a 	ret

0000b968 <alt_ic_irq_enable>:
    b968:	defff904 	addi	sp,sp,-28
    b96c:	df000615 	stw	fp,24(sp)
    b970:	df000604 	addi	fp,sp,24
    b974:	e13ffe15 	stw	r4,-8(fp)
    b978:	e17fff15 	stw	r5,-4(fp)
    b97c:	e0bfff17 	ldw	r2,-4(fp)
    b980:	e0bffa15 	stw	r2,-24(fp)
    b984:	0005303a 	rdctl	r2,status
    b988:	e0bffb15 	stw	r2,-20(fp)
    b98c:	e0fffb17 	ldw	r3,-20(fp)
    b990:	00bfff84 	movi	r2,-2
    b994:	1884703a 	and	r2,r3,r2
    b998:	1001703a 	wrctl	status,r2
    b99c:	e0bffb17 	ldw	r2,-20(fp)
    b9a0:	e0bffc15 	stw	r2,-16(fp)
    b9a4:	e0bffa17 	ldw	r2,-24(fp)
    b9a8:	00c00044 	movi	r3,1
    b9ac:	1884983a 	sll	r2,r3,r2
    b9b0:	1007883a 	mov	r3,r2
    b9b4:	00800074 	movhi	r2,1
    b9b8:	10b38c04 	addi	r2,r2,-12752
    b9bc:	10800017 	ldw	r2,0(r2)
    b9c0:	1886b03a 	or	r3,r3,r2
    b9c4:	00800074 	movhi	r2,1
    b9c8:	10b38c04 	addi	r2,r2,-12752
    b9cc:	10c00015 	stw	r3,0(r2)
    b9d0:	00800074 	movhi	r2,1
    b9d4:	10b38c04 	addi	r2,r2,-12752
    b9d8:	10800017 	ldw	r2,0(r2)
    b9dc:	100170fa 	wrctl	ienable,r2
    b9e0:	e0bffc17 	ldw	r2,-16(fp)
    b9e4:	e0bffd15 	stw	r2,-12(fp)
    b9e8:	e0bffd17 	ldw	r2,-12(fp)
    b9ec:	1001703a 	wrctl	status,r2
    b9f0:	0005883a 	mov	r2,zero
    b9f4:	0001883a 	nop
    b9f8:	e037883a 	mov	sp,fp
    b9fc:	df000017 	ldw	fp,0(sp)
    ba00:	dec00104 	addi	sp,sp,4
    ba04:	f800283a 	ret

0000ba08 <alt_ic_irq_disable>:
    ba08:	defff904 	addi	sp,sp,-28
    ba0c:	df000615 	stw	fp,24(sp)
    ba10:	df000604 	addi	fp,sp,24
    ba14:	e13ffe15 	stw	r4,-8(fp)
    ba18:	e17fff15 	stw	r5,-4(fp)
    ba1c:	e0bfff17 	ldw	r2,-4(fp)
    ba20:	e0bffa15 	stw	r2,-24(fp)
    ba24:	0005303a 	rdctl	r2,status
    ba28:	e0bffb15 	stw	r2,-20(fp)
    ba2c:	e0fffb17 	ldw	r3,-20(fp)
    ba30:	00bfff84 	movi	r2,-2
    ba34:	1884703a 	and	r2,r3,r2
    ba38:	1001703a 	wrctl	status,r2
    ba3c:	e0bffb17 	ldw	r2,-20(fp)
    ba40:	e0bffc15 	stw	r2,-16(fp)
    ba44:	e0bffa17 	ldw	r2,-24(fp)
    ba48:	00c00044 	movi	r3,1
    ba4c:	1884983a 	sll	r2,r3,r2
    ba50:	0084303a 	nor	r2,zero,r2
    ba54:	1007883a 	mov	r3,r2
    ba58:	00800074 	movhi	r2,1
    ba5c:	10b38c04 	addi	r2,r2,-12752
    ba60:	10800017 	ldw	r2,0(r2)
    ba64:	1886703a 	and	r3,r3,r2
    ba68:	00800074 	movhi	r2,1
    ba6c:	10b38c04 	addi	r2,r2,-12752
    ba70:	10c00015 	stw	r3,0(r2)
    ba74:	00800074 	movhi	r2,1
    ba78:	10b38c04 	addi	r2,r2,-12752
    ba7c:	10800017 	ldw	r2,0(r2)
    ba80:	100170fa 	wrctl	ienable,r2
    ba84:	e0bffc17 	ldw	r2,-16(fp)
    ba88:	e0bffd15 	stw	r2,-12(fp)
    ba8c:	e0bffd17 	ldw	r2,-12(fp)
    ba90:	1001703a 	wrctl	status,r2
    ba94:	0005883a 	mov	r2,zero
    ba98:	0001883a 	nop
    ba9c:	e037883a 	mov	sp,fp
    baa0:	df000017 	ldw	fp,0(sp)
    baa4:	dec00104 	addi	sp,sp,4
    baa8:	f800283a 	ret

0000baac <alt_ic_irq_enabled>:
    baac:	defffc04 	addi	sp,sp,-16
    bab0:	df000315 	stw	fp,12(sp)
    bab4:	df000304 	addi	fp,sp,12
    bab8:	e13ffe15 	stw	r4,-8(fp)
    babc:	e17fff15 	stw	r5,-4(fp)
    bac0:	000530fa 	rdctl	r2,ienable
    bac4:	e0bffd15 	stw	r2,-12(fp)
    bac8:	e0bfff17 	ldw	r2,-4(fp)
    bacc:	00c00044 	movi	r3,1
    bad0:	1884983a 	sll	r2,r3,r2
    bad4:	1007883a 	mov	r3,r2
    bad8:	e0bffd17 	ldw	r2,-12(fp)
    badc:	1884703a 	and	r2,r3,r2
    bae0:	1004c03a 	cmpne	r2,r2,zero
    bae4:	10803fcc 	andi	r2,r2,255
    bae8:	e037883a 	mov	sp,fp
    baec:	df000017 	ldw	fp,0(sp)
    baf0:	dec00104 	addi	sp,sp,4
    baf4:	f800283a 	ret

0000baf8 <alt_iic_isr_register>:
    baf8:	defff504 	addi	sp,sp,-44
    bafc:	dfc00a15 	stw	ra,40(sp)
    bb00:	df000915 	stw	fp,36(sp)
    bb04:	df000904 	addi	fp,sp,36
    bb08:	e13ffc15 	stw	r4,-16(fp)
    bb0c:	e17ffd15 	stw	r5,-12(fp)
    bb10:	e1bffe15 	stw	r6,-8(fp)
    bb14:	e1ffff15 	stw	r7,-4(fp)
    bb18:	00bffa84 	movi	r2,-22
    bb1c:	e0bff715 	stw	r2,-36(fp)
    bb20:	e0bffd17 	ldw	r2,-12(fp)
    bb24:	e0bff815 	stw	r2,-32(fp)
    bb28:	e0bff817 	ldw	r2,-32(fp)
    bb2c:	10800808 	cmpgei	r2,r2,32
    bb30:	1000271e 	bne	r2,zero,bbd0 <alt_iic_isr_register+0xd8>
    bb34:	0005303a 	rdctl	r2,status
    bb38:	e0bffa15 	stw	r2,-24(fp)
    bb3c:	e0fffa17 	ldw	r3,-24(fp)
    bb40:	00bfff84 	movi	r2,-2
    bb44:	1884703a 	and	r2,r3,r2
    bb48:	1001703a 	wrctl	status,r2
    bb4c:	e0bffa17 	ldw	r2,-24(fp)
    bb50:	e0bff915 	stw	r2,-28(fp)
    bb54:	00800074 	movhi	r2,1
    bb58:	10b3ef04 	addi	r2,r2,-12356
    bb5c:	e0fff817 	ldw	r3,-32(fp)
    bb60:	180690fa 	slli	r3,r3,3
    bb64:	10c5883a 	add	r2,r2,r3
    bb68:	e0fffe17 	ldw	r3,-8(fp)
    bb6c:	10c00015 	stw	r3,0(r2)
    bb70:	00800074 	movhi	r2,1
    bb74:	10b3ef04 	addi	r2,r2,-12356
    bb78:	e0fff817 	ldw	r3,-32(fp)
    bb7c:	180690fa 	slli	r3,r3,3
    bb80:	18c00104 	addi	r3,r3,4
    bb84:	10c5883a 	add	r2,r2,r3
    bb88:	e0ffff17 	ldw	r3,-4(fp)
    bb8c:	10c00015 	stw	r3,0(r2)
    bb90:	e0bffe17 	ldw	r2,-8(fp)
    bb94:	10000526 	beq	r2,zero,bbac <alt_iic_isr_register+0xb4>
    bb98:	e0bff817 	ldw	r2,-32(fp)
    bb9c:	e13ffc17 	ldw	r4,-16(fp)
    bba0:	100b883a 	mov	r5,r2
    bba4:	000b9680 	call	b968 <alt_ic_irq_enable>
    bba8:	00000406 	br	bbbc <alt_iic_isr_register+0xc4>
    bbac:	e0bff817 	ldw	r2,-32(fp)
    bbb0:	e13ffc17 	ldw	r4,-16(fp)
    bbb4:	100b883a 	mov	r5,r2
    bbb8:	000ba080 	call	ba08 <alt_ic_irq_disable>
    bbbc:	e0bff715 	stw	r2,-36(fp)
    bbc0:	e0bff917 	ldw	r2,-28(fp)
    bbc4:	e0bffb15 	stw	r2,-20(fp)
    bbc8:	e0bffb17 	ldw	r2,-20(fp)
    bbcc:	1001703a 	wrctl	status,r2
    bbd0:	e0bff717 	ldw	r2,-36(fp)
    bbd4:	e037883a 	mov	sp,fp
    bbd8:	dfc00117 	ldw	ra,4(sp)
    bbdc:	df000017 	ldw	fp,0(sp)
    bbe0:	dec00204 	addi	sp,sp,8
    bbe4:	f800283a 	ret

0000bbe8 <alt_release_fd>:
    bbe8:	defffc04 	addi	sp,sp,-16
    bbec:	dfc00315 	stw	ra,12(sp)
    bbf0:	df000215 	stw	fp,8(sp)
    bbf4:	dc000115 	stw	r16,4(sp)
    bbf8:	df000204 	addi	fp,sp,8
    bbfc:	e13ffe15 	stw	r4,-8(fp)
    bc00:	e0bffe17 	ldw	r2,-8(fp)
    bc04:	108000d0 	cmplti	r2,r2,3
    bc08:	1000111e 	bne	r2,zero,bc50 <alt_release_fd+0x68>
    bc0c:	04000074 	movhi	r16,1
    bc10:	84305504 	addi	r16,r16,-16044
    bc14:	e0bffe17 	ldw	r2,-8(fp)
    bc18:	1009883a 	mov	r4,r2
    bc1c:	01400304 	movi	r5,12
    bc20:	000a4d80 	call	a4d8 <__mulsi3>
    bc24:	10800204 	addi	r2,r2,8
    bc28:	8085883a 	add	r2,r16,r2
    bc2c:	10000015 	stw	zero,0(r2)
    bc30:	04000074 	movhi	r16,1
    bc34:	84305504 	addi	r16,r16,-16044
    bc38:	e0bffe17 	ldw	r2,-8(fp)
    bc3c:	1009883a 	mov	r4,r2
    bc40:	01400304 	movi	r5,12
    bc44:	000a4d80 	call	a4d8 <__mulsi3>
    bc48:	8085883a 	add	r2,r16,r2
    bc4c:	10000015 	stw	zero,0(r2)
    bc50:	e6ffff04 	addi	sp,fp,-4
    bc54:	dfc00217 	ldw	ra,8(sp)
    bc58:	df000117 	ldw	fp,4(sp)
    bc5c:	dc000017 	ldw	r16,0(sp)
    bc60:	dec00304 	addi	sp,sp,12
    bc64:	f800283a 	ret

0000bc68 <altera_nios2_gen2_irq_init>:
    bc68:	deffff04 	addi	sp,sp,-4
    bc6c:	df000015 	stw	fp,0(sp)
    bc70:	d839883a 	mov	fp,sp
    bc74:	000170fa 	wrctl	ienable,zero
    bc78:	e037883a 	mov	sp,fp
    bc7c:	df000017 	ldw	fp,0(sp)
    bc80:	dec00104 	addi	sp,sp,4
    bc84:	f800283a 	ret

0000bc88 <alt_exception_cause_generated_bad_addr>:
    bc88:	defffe04 	addi	sp,sp,-8
    bc8c:	df000115 	stw	fp,4(sp)
    bc90:	df000104 	addi	fp,sp,4
    bc94:	e13fff15 	stw	r4,-4(fp)
    bc98:	e0bfff17 	ldw	r2,-4(fp)
    bc9c:	10bffe84 	addi	r2,r2,-6
    bca0:	10c00428 	cmpgeui	r3,r2,16
    bca4:	18001a1e 	bne	r3,zero,bd10 <alt_exception_cause_generated_bad_addr+0x88>
    bca8:	100690ba 	slli	r3,r2,2
    bcac:	00800074 	movhi	r2,1
    bcb0:	10af3004 	addi	r2,r2,-17216
    bcb4:	1885883a 	add	r2,r3,r2
    bcb8:	10800017 	ldw	r2,0(r2)
    bcbc:	1000683a 	jmp	r2
    bcc0:	0000bd00 	call	bd0 <__reset-0x7430>
    bcc4:	0000bd00 	call	bd0 <__reset-0x7430>
    bcc8:	0000bd10 	cmplti	zero,zero,756
    bccc:	0000bd10 	cmplti	zero,zero,756
    bcd0:	0000bd10 	cmplti	zero,zero,756
    bcd4:	0000bd00 	call	bd0 <__reset-0x7430>
    bcd8:	0000bd08 	cmpgei	zero,zero,756
    bcdc:	0000bd10 	cmplti	zero,zero,756
    bce0:	0000bd00 	call	bd0 <__reset-0x7430>
    bce4:	0000bd00 	call	bd0 <__reset-0x7430>
    bce8:	0000bd10 	cmplti	zero,zero,756
    bcec:	0000bd00 	call	bd0 <__reset-0x7430>
    bcf0:	0000bd08 	cmpgei	zero,zero,756
    bcf4:	0000bd10 	cmplti	zero,zero,756
    bcf8:	0000bd10 	cmplti	zero,zero,756
    bcfc:	0000bd00 	call	bd0 <__reset-0x7430>
    bd00:	00800044 	movi	r2,1
    bd04:	00000306 	br	bd14 <alt_exception_cause_generated_bad_addr+0x8c>
    bd08:	0005883a 	mov	r2,zero
    bd0c:	00000106 	br	bd14 <alt_exception_cause_generated_bad_addr+0x8c>
    bd10:	0005883a 	mov	r2,zero
    bd14:	e037883a 	mov	sp,fp
    bd18:	df000017 	ldw	fp,0(sp)
    bd1c:	dec00104 	addi	sp,sp,4
    bd20:	f800283a 	ret

0000bd24 <atexit>:
    bd24:	200b883a 	mov	r5,r4
    bd28:	000d883a 	mov	r6,zero
    bd2c:	0009883a 	mov	r4,zero
    bd30:	000f883a 	mov	r7,zero
    bd34:	000bd701 	jmpi	bd70 <__register_exitproc>

0000bd38 <exit>:
    bd38:	defffe04 	addi	sp,sp,-8
    bd3c:	000b883a 	mov	r5,zero
    bd40:	dc000015 	stw	r16,0(sp)
    bd44:	dfc00115 	stw	ra,4(sp)
    bd48:	2021883a 	mov	r16,r4
    bd4c:	000be840 	call	be84 <__call_exitprocs>
    bd50:	00800074 	movhi	r2,1
    bd54:	10b1c904 	addi	r2,r2,-14556
    bd58:	11000017 	ldw	r4,0(r2)
    bd5c:	20800f17 	ldw	r2,60(r4)
    bd60:	10000126 	beq	r2,zero,bd68 <exit+0x30>
    bd64:	103ee83a 	callr	r2
    bd68:	8009883a 	mov	r4,r16
    bd6c:	000c0180 	call	c018 <_exit>

0000bd70 <__register_exitproc>:
    bd70:	00800074 	movhi	r2,1
    bd74:	defffa04 	addi	sp,sp,-24
    bd78:	10b1c904 	addi	r2,r2,-14556
    bd7c:	dc000315 	stw	r16,12(sp)
    bd80:	14000017 	ldw	r16,0(r2)
    bd84:	dc400415 	stw	r17,16(sp)
    bd88:	dfc00515 	stw	ra,20(sp)
    bd8c:	80805217 	ldw	r2,328(r16)
    bd90:	2023883a 	mov	r17,r4
    bd94:	10003626 	beq	r2,zero,be70 <__register_exitproc+0x100>
    bd98:	10c00117 	ldw	r3,4(r2)
    bd9c:	010007c4 	movi	r4,31
    bda0:	20c00e16 	blt	r4,r3,bddc <__register_exitproc+0x6c>
    bda4:	1a400044 	addi	r9,r3,1
    bda8:	8800211e 	bne	r17,zero,be30 <__register_exitproc+0xc0>
    bdac:	18c00084 	addi	r3,r3,2
    bdb0:	18c7883a 	add	r3,r3,r3
    bdb4:	18c7883a 	add	r3,r3,r3
    bdb8:	12400115 	stw	r9,4(r2)
    bdbc:	10c7883a 	add	r3,r2,r3
    bdc0:	19400015 	stw	r5,0(r3)
    bdc4:	0005883a 	mov	r2,zero
    bdc8:	dfc00517 	ldw	ra,20(sp)
    bdcc:	dc400417 	ldw	r17,16(sp)
    bdd0:	dc000317 	ldw	r16,12(sp)
    bdd4:	dec00604 	addi	sp,sp,24
    bdd8:	f800283a 	ret
    bddc:	00800034 	movhi	r2,0
    bde0:	10800004 	addi	r2,r2,0
    bde4:	10002526 	beq	r2,zero,be7c <__register_exitproc+0x10c>
    bde8:	01006404 	movi	r4,400
    bdec:	d9400015 	stw	r5,0(sp)
    bdf0:	d9800115 	stw	r6,4(sp)
    bdf4:	d9c00215 	stw	r7,8(sp)
    bdf8:	00000000 	call	0 <__reset-0x8000>
    bdfc:	d9400017 	ldw	r5,0(sp)
    be00:	d9800117 	ldw	r6,4(sp)
    be04:	d9c00217 	ldw	r7,8(sp)
    be08:	10001c26 	beq	r2,zero,be7c <__register_exitproc+0x10c>
    be0c:	80c05217 	ldw	r3,328(r16)
    be10:	10000115 	stw	zero,4(r2)
    be14:	02400044 	movi	r9,1
    be18:	10c00015 	stw	r3,0(r2)
    be1c:	80805215 	stw	r2,328(r16)
    be20:	10006215 	stw	zero,392(r2)
    be24:	10006315 	stw	zero,396(r2)
    be28:	0007883a 	mov	r3,zero
    be2c:	883fdf26 	beq	r17,zero,bdac <_gp+0xffff76b4>
    be30:	18d1883a 	add	r8,r3,r3
    be34:	4211883a 	add	r8,r8,r8
    be38:	1211883a 	add	r8,r2,r8
    be3c:	41802215 	stw	r6,136(r8)
    be40:	01000044 	movi	r4,1
    be44:	11806217 	ldw	r6,392(r2)
    be48:	20c8983a 	sll	r4,r4,r3
    be4c:	310cb03a 	or	r6,r6,r4
    be50:	11806215 	stw	r6,392(r2)
    be54:	41c04215 	stw	r7,264(r8)
    be58:	01800084 	movi	r6,2
    be5c:	89bfd31e 	bne	r17,r6,bdac <_gp+0xffff76b4>
    be60:	11806317 	ldw	r6,396(r2)
    be64:	3108b03a 	or	r4,r6,r4
    be68:	11006315 	stw	r4,396(r2)
    be6c:	003fcf06 	br	bdac <_gp+0xffff76b4>
    be70:	80805304 	addi	r2,r16,332
    be74:	80805215 	stw	r2,328(r16)
    be78:	003fc706 	br	bd98 <_gp+0xffff76a0>
    be7c:	00bfffc4 	movi	r2,-1
    be80:	003fd106 	br	bdc8 <_gp+0xffff76d0>

0000be84 <__call_exitprocs>:
    be84:	00800074 	movhi	r2,1
    be88:	10b1c904 	addi	r2,r2,-14556
    be8c:	10800017 	ldw	r2,0(r2)
    be90:	defff404 	addi	sp,sp,-48
    be94:	dd800815 	stw	r22,32(sp)
    be98:	d8800015 	stw	r2,0(sp)
    be9c:	10805204 	addi	r2,r2,328
    bea0:	dd000615 	stw	r20,24(sp)
    bea4:	dc800415 	stw	r18,16(sp)
    bea8:	dfc00b15 	stw	ra,44(sp)
    beac:	df000a15 	stw	fp,40(sp)
    beb0:	ddc00915 	stw	r23,36(sp)
    beb4:	dd400715 	stw	r21,28(sp)
    beb8:	dcc00515 	stw	r19,20(sp)
    bebc:	dc400315 	stw	r17,12(sp)
    bec0:	dc000215 	stw	r16,8(sp)
    bec4:	2025883a 	mov	r18,r4
    bec8:	2829883a 	mov	r20,r5
    becc:	d8800115 	stw	r2,4(sp)
    bed0:	05bfffc4 	movi	r22,-1
    bed4:	d8800017 	ldw	r2,0(sp)
    bed8:	14c05217 	ldw	r19,328(r2)
    bedc:	98001d26 	beq	r19,zero,bf54 <__call_exitprocs+0xd0>
    bee0:	dd400117 	ldw	r21,4(sp)
    bee4:	98800117 	ldw	r2,4(r19)
    bee8:	173fffc4 	addi	fp,r2,-1
    beec:	e0000d16 	blt	fp,zero,bf24 <__call_exitprocs+0xa0>
    bef0:	14000044 	addi	r16,r2,1
    bef4:	8421883a 	add	r16,r16,r16
    bef8:	8421883a 	add	r16,r16,r16
    befc:	84402004 	addi	r17,r16,128
    bf00:	9c63883a 	add	r17,r19,r17
    bf04:	9c21883a 	add	r16,r19,r16
    bf08:	a0001e26 	beq	r20,zero,bf84 <__call_exitprocs+0x100>
    bf0c:	80804017 	ldw	r2,256(r16)
    bf10:	15001c26 	beq	r2,r20,bf84 <__call_exitprocs+0x100>
    bf14:	e73fffc4 	addi	fp,fp,-1
    bf18:	843fff04 	addi	r16,r16,-4
    bf1c:	8c7fff04 	addi	r17,r17,-4
    bf20:	e5bff91e 	bne	fp,r22,bf08 <_gp+0xffff7810>
    bf24:	00800034 	movhi	r2,0
    bf28:	10800004 	addi	r2,r2,0
    bf2c:	10000926 	beq	r2,zero,bf54 <__call_exitprocs+0xd0>
    bf30:	98800117 	ldw	r2,4(r19)
    bf34:	1000311e 	bne	r2,zero,bffc <__call_exitprocs+0x178>
    bf38:	98800017 	ldw	r2,0(r19)
    bf3c:	10003426 	beq	r2,zero,c010 <__call_exitprocs+0x18c>
    bf40:	9809883a 	mov	r4,r19
    bf44:	a8800015 	stw	r2,0(r21)
    bf48:	00000000 	call	0 <__reset-0x8000>
    bf4c:	acc00017 	ldw	r19,0(r21)
    bf50:	983fe41e 	bne	r19,zero,bee4 <_gp+0xffff77ec>
    bf54:	dfc00b17 	ldw	ra,44(sp)
    bf58:	df000a17 	ldw	fp,40(sp)
    bf5c:	ddc00917 	ldw	r23,36(sp)
    bf60:	dd800817 	ldw	r22,32(sp)
    bf64:	dd400717 	ldw	r21,28(sp)
    bf68:	dd000617 	ldw	r20,24(sp)
    bf6c:	dcc00517 	ldw	r19,20(sp)
    bf70:	dc800417 	ldw	r18,16(sp)
    bf74:	dc400317 	ldw	r17,12(sp)
    bf78:	dc000217 	ldw	r16,8(sp)
    bf7c:	dec00c04 	addi	sp,sp,48
    bf80:	f800283a 	ret
    bf84:	98800117 	ldw	r2,4(r19)
    bf88:	80c00017 	ldw	r3,0(r16)
    bf8c:	10bfffc4 	addi	r2,r2,-1
    bf90:	17001526 	beq	r2,fp,bfe8 <__call_exitprocs+0x164>
    bf94:	80000015 	stw	zero,0(r16)
    bf98:	183fde26 	beq	r3,zero,bf14 <_gp+0xffff781c>
    bf9c:	00800044 	movi	r2,1
    bfa0:	1708983a 	sll	r4,r2,fp
    bfa4:	98806217 	ldw	r2,392(r19)
    bfa8:	9dc00117 	ldw	r23,4(r19)
    bfac:	2084703a 	and	r2,r4,r2
    bfb0:	1000061e 	bne	r2,zero,bfcc <__call_exitprocs+0x148>
    bfb4:	183ee83a 	callr	r3
    bfb8:	98800117 	ldw	r2,4(r19)
    bfbc:	15ffc51e 	bne	r2,r23,bed4 <_gp+0xffff77dc>
    bfc0:	a8800017 	ldw	r2,0(r21)
    bfc4:	14ffd326 	beq	r2,r19,bf14 <_gp+0xffff781c>
    bfc8:	003fc206 	br	bed4 <_gp+0xffff77dc>
    bfcc:	98806317 	ldw	r2,396(r19)
    bfd0:	2084703a 	and	r2,r4,r2
    bfd4:	1000061e 	bne	r2,zero,bff0 <__call_exitprocs+0x16c>
    bfd8:	89400017 	ldw	r5,0(r17)
    bfdc:	9009883a 	mov	r4,r18
    bfe0:	183ee83a 	callr	r3
    bfe4:	003ff406 	br	bfb8 <_gp+0xffff78c0>
    bfe8:	9f000115 	stw	fp,4(r19)
    bfec:	003fea06 	br	bf98 <_gp+0xffff78a0>
    bff0:	89000017 	ldw	r4,0(r17)
    bff4:	183ee83a 	callr	r3
    bff8:	003fef06 	br	bfb8 <_gp+0xffff78c0>
    bffc:	98800017 	ldw	r2,0(r19)
    c000:	982b883a 	mov	r21,r19
    c004:	1027883a 	mov	r19,r2
    c008:	983fb61e 	bne	r19,zero,bee4 <_gp+0xffff77ec>
    c00c:	003fd106 	br	bf54 <_gp+0xffff785c>
    c010:	0005883a 	mov	r2,zero
    c014:	003ffa06 	br	c000 <_gp+0xffff7908>

0000c018 <_exit>:
    c018:	defffd04 	addi	sp,sp,-12
    c01c:	df000215 	stw	fp,8(sp)
    c020:	df000204 	addi	fp,sp,8
    c024:	e13fff15 	stw	r4,-4(fp)
    c028:	0001883a 	nop
    c02c:	e0bfff17 	ldw	r2,-4(fp)
    c030:	e0bffe15 	stw	r2,-8(fp)
    c034:	e0bffe17 	ldw	r2,-8(fp)
    c038:	10000226 	beq	r2,zero,c044 <_exit+0x2c>
    c03c:	002af070 	cmpltui	zero,zero,43969
    c040:	00000106 	br	c048 <_exit+0x30>
    c044:	002af0b0 	cmpltui	zero,zero,43970
    c048:	003fff06 	br	c048 <_gp+0xffff7950>
