
de2-test.elf:     file format elf32-littleriscv


Disassembly of section .init:

00000100 <user_trap_entry>:
 100:	00018463          	beqz	gp,108 <user_trap_entry+0x8>
 104:	1bc0006f          	j	2c0 <trap_entry>
 108:	0f80006f          	j	200 <_start>
 10c:	00000013          	nop
 110:	00000013          	nop
 114:	00000013          	nop
 118:	00000013          	nop
 11c:	00000013          	nop
 120:	00000013          	nop
 124:	00000013          	nop
 128:	00000013          	nop
 12c:	00000013          	nop
 130:	00000013          	nop
 134:	00000013          	nop
 138:	00000013          	nop
 13c:	00000013          	nop

00000140 <supervisor_trap_entry>:
 140:	0000006f          	j	140 <supervisor_trap_entry>
 144:	00000013          	nop
 148:	00000013          	nop
 14c:	00000013          	nop
 150:	00000013          	nop
 154:	00000013          	nop
 158:	00000013          	nop
 15c:	00000013          	nop
 160:	00000013          	nop
 164:	00000013          	nop
 168:	00000013          	nop
 16c:	00000013          	nop
 170:	00000013          	nop
 174:	00000013          	nop
 178:	00000013          	nop
 17c:	00000013          	nop

00000180 <hypervisor_trap_entry>:
 180:	0000006f          	j	180 <hypervisor_trap_entry>
 184:	00000013          	nop
 188:	00000013          	nop
 18c:	00000013          	nop
 190:	00000013          	nop
 194:	00000013          	nop
 198:	00000013          	nop
 19c:	00000013          	nop
 1a0:	00000013          	nop
 1a4:	00000013          	nop
 1a8:	00000013          	nop
 1ac:	00000013          	nop
 1b0:	00000013          	nop
 1b4:	00000013          	nop
 1b8:	00000013          	nop
 1bc:	00000013          	nop

000001c0 <machine_trap_entry>:
 1c0:	ffc10113          	addi	sp,sp,-4
 1c4:	00512023          	sw	t0,0(sp)
 1c8:	342022f3          	csrr	t0,mcause
 1cc:	01f2d293          	srli	t0,t0,0x1f
 1d0:	00028863          	beqz	t0,1e0 <take_trap>
 1d4:	00012283          	lw	t0,0(sp)
 1d8:	00410113          	addi	sp,sp,4
 1dc:	2000006f          	j	3dc <interrupt_entry>

000001e0 <take_trap>:
 1e0:	00012283          	lw	t0,0(sp)
 1e4:	00410113          	addi	sp,sp,4
 1e8:	0d80006f          	j	2c0 <trap_entry>
 1ec:	00000013          	nop
 1f0:	00000013          	nop
 1f4:	00000013          	nop
 1f8:	00000013          	nop
 1fc:	00000013          	nop

00000200 <_start>:
 200:	00000093          	li	ra,0
 204:	00000113          	li	sp,0
 208:	00000193          	li	gp,0
 20c:	00000213          	li	tp,0
 210:	00000293          	li	t0,0
 214:	00000313          	li	t1,0
 218:	00000393          	li	t2,0
 21c:	00000413          	li	s0,0
 220:	00000493          	li	s1,0
 224:	00000513          	li	a0,0
 228:	00000593          	li	a1,0
 22c:	00000613          	li	a2,0
 230:	00000693          	li	a3,0
 234:	00000713          	li	a4,0
 238:	00000793          	li	a5,0
 23c:	00000813          	li	a6,0
 240:	00000893          	li	a7,0
 244:	00000913          	li	s2,0
 248:	00000993          	li	s3,0
 24c:	00000a13          	li	s4,0
 250:	00000a93          	li	s5,0
 254:	00000b13          	li	s6,0
 258:	00000b93          	li	s7,0
 25c:	00000c13          	li	s8,0
 260:	00000c93          	li	s9,0
 264:	00000d13          	li	s10,0
 268:	00000d93          	li	s11,0
 26c:	00000e13          	li	t3,0
 270:	00000e93          	li	t4,0
 274:	00000f13          	li	t5,0
 278:	00000f93          	li	t6,0
 27c:	00004197          	auipc	gp,0x4
 280:	58418193          	addi	gp,gp,1412 # 4800 <_gp>
 284:	00004217          	auipc	tp,0x4
 288:	dcf20213          	addi	tp,tp,-561 # 4053 <_end+0x3f>
 28c:	fc027213          	andi	tp,tp,-64
 290:	f1402573          	csrr	a0,mhartid
 294:	00100593          	li	a1,1
 298:	00b57063          	bleu	a1,a0,298 <_start+0x98>
 29c:	01151613          	slli	a2,a0,0x11
 2a0:	00c20233          	add	tp,tp,a2
 2a4:	00150113          	addi	sp,a0,1
 2a8:	01111113          	slli	sp,sp,0x11
 2ac:	00410133          	add	sp,sp,tp
 2b0:	00000297          	auipc	t0,0x0
 2b4:	27c28293          	addi	t0,t0,636 # 52c <_init>
 2b8:	34129073          	csrw	mepc,t0
 2bc:	30200073          	mret

000002c0 <trap_entry>:
 2c0:	ef010113          	addi	sp,sp,-272
 2c4:	00112223          	sw	ra,4(sp)
 2c8:	00212423          	sw	sp,8(sp)
 2cc:	00312623          	sw	gp,12(sp)
 2d0:	00412823          	sw	tp,16(sp)
 2d4:	00512a23          	sw	t0,20(sp)
 2d8:	00612c23          	sw	t1,24(sp)
 2dc:	00712e23          	sw	t2,28(sp)
 2e0:	02812023          	sw	s0,32(sp)
 2e4:	02912223          	sw	s1,36(sp)
 2e8:	02a12423          	sw	a0,40(sp)
 2ec:	02b12623          	sw	a1,44(sp)
 2f0:	02c12823          	sw	a2,48(sp)
 2f4:	02d12a23          	sw	a3,52(sp)
 2f8:	02e12c23          	sw	a4,56(sp)
 2fc:	02f12e23          	sw	a5,60(sp)
 300:	05012023          	sw	a6,64(sp)
 304:	05112223          	sw	a7,68(sp)
 308:	05212423          	sw	s2,72(sp)
 30c:	05312623          	sw	s3,76(sp)
 310:	05412823          	sw	s4,80(sp)
 314:	05512a23          	sw	s5,84(sp)
 318:	05612c23          	sw	s6,88(sp)
 31c:	05712e23          	sw	s7,92(sp)
 320:	07812023          	sw	s8,96(sp)
 324:	07912223          	sw	s9,100(sp)
 328:	07a12423          	sw	s10,104(sp)
 32c:	07b12623          	sw	s11,108(sp)
 330:	07c12823          	sw	t3,112(sp)
 334:	07d12a23          	sw	t4,116(sp)
 338:	07e12c23          	sw	t5,120(sp)
 33c:	07f12e23          	sw	t6,124(sp)
 340:	34202573          	csrr	a0,mcause
 344:	341025f3          	csrr	a1,mepc
 348:	00010613          	mv	a2,sp
 34c:	1dc000ef          	jal	528 <handle_interrupt>
 350:	34151073          	csrw	mepc,a0
 354:	00412083          	lw	ra,4(sp)
 358:	00812103          	lw	sp,8(sp)
 35c:	00c12183          	lw	gp,12(sp)
 360:	01012203          	lw	tp,16(sp)
 364:	01412283          	lw	t0,20(sp)
 368:	01812303          	lw	t1,24(sp)
 36c:	01c12383          	lw	t2,28(sp)
 370:	02012403          	lw	s0,32(sp)
 374:	02412483          	lw	s1,36(sp)
 378:	02812503          	lw	a0,40(sp)
 37c:	02c12583          	lw	a1,44(sp)
 380:	03012603          	lw	a2,48(sp)
 384:	03412683          	lw	a3,52(sp)
 388:	03812703          	lw	a4,56(sp)
 38c:	03c12783          	lw	a5,60(sp)
 390:	04012803          	lw	a6,64(sp)
 394:	04412883          	lw	a7,68(sp)
 398:	04812903          	lw	s2,72(sp)
 39c:	04c12983          	lw	s3,76(sp)
 3a0:	05012a03          	lw	s4,80(sp)
 3a4:	05412a83          	lw	s5,84(sp)
 3a8:	05812b03          	lw	s6,88(sp)
 3ac:	05c12b83          	lw	s7,92(sp)
 3b0:	06012c03          	lw	s8,96(sp)
 3b4:	06412c83          	lw	s9,100(sp)
 3b8:	06812d03          	lw	s10,104(sp)
 3bc:	06c12d83          	lw	s11,108(sp)
 3c0:	07012e03          	lw	t3,112(sp)
 3c4:	07412e83          	lw	t4,116(sp)
 3c8:	07812f03          	lw	t5,120(sp)
 3cc:	07c12f83          	lw	t6,124(sp)
 3d0:	11010113          	addi	sp,sp,272
 3d4:	30046073          	csrsi	mstatus,8
 3d8:	30200073          	mret

000003dc <interrupt_entry>:
 3dc:	ef010113          	addi	sp,sp,-272
 3e0:	00112223          	sw	ra,4(sp)
 3e4:	00212423          	sw	sp,8(sp)
 3e8:	00312623          	sw	gp,12(sp)
 3ec:	00412823          	sw	tp,16(sp)
 3f0:	00512a23          	sw	t0,20(sp)
 3f4:	00612c23          	sw	t1,24(sp)
 3f8:	00712e23          	sw	t2,28(sp)
 3fc:	02812023          	sw	s0,32(sp)
 400:	02912223          	sw	s1,36(sp)
 404:	02a12423          	sw	a0,40(sp)
 408:	02b12623          	sw	a1,44(sp)
 40c:	02c12823          	sw	a2,48(sp)
 410:	02d12a23          	sw	a3,52(sp)
 414:	02e12c23          	sw	a4,56(sp)
 418:	02f12e23          	sw	a5,60(sp)
 41c:	05012023          	sw	a6,64(sp)
 420:	05112223          	sw	a7,68(sp)
 424:	05212423          	sw	s2,72(sp)
 428:	05312623          	sw	s3,76(sp)
 42c:	05412823          	sw	s4,80(sp)
 430:	05512a23          	sw	s5,84(sp)
 434:	05612c23          	sw	s6,88(sp)
 438:	05712e23          	sw	s7,92(sp)
 43c:	07812023          	sw	s8,96(sp)
 440:	07912223          	sw	s9,100(sp)
 444:	07a12423          	sw	s10,104(sp)
 448:	07b12623          	sw	s11,108(sp)
 44c:	07c12823          	sw	t3,112(sp)
 450:	07d12a23          	sw	t4,116(sp)
 454:	07e12c23          	sw	t5,120(sp)
 458:	07f12e23          	sw	t6,124(sp)
 45c:	34202573          	csrr	a0,mcause
 460:	341025f3          	csrr	a1,mepc
 464:	00010613          	mv	a2,sp
 468:	0c0000ef          	jal	528 <handle_interrupt>
 46c:	34151073          	csrw	mepc,a0
 470:	00412083          	lw	ra,4(sp)
 474:	00812103          	lw	sp,8(sp)
 478:	00c12183          	lw	gp,12(sp)
 47c:	01012203          	lw	tp,16(sp)
 480:	01412283          	lw	t0,20(sp)
 484:	01812303          	lw	t1,24(sp)
 488:	01c12383          	lw	t2,28(sp)
 48c:	02012403          	lw	s0,32(sp)
 490:	02412483          	lw	s1,36(sp)
 494:	02812503          	lw	a0,40(sp)
 498:	02c12583          	lw	a1,44(sp)
 49c:	03012603          	lw	a2,48(sp)
 4a0:	03412683          	lw	a3,52(sp)
 4a4:	03812703          	lw	a4,56(sp)
 4a8:	03c12783          	lw	a5,60(sp)
 4ac:	04012803          	lw	a6,64(sp)
 4b0:	04412883          	lw	a7,68(sp)
 4b4:	04812903          	lw	s2,72(sp)
 4b8:	04c12983          	lw	s3,76(sp)
 4bc:	05012a03          	lw	s4,80(sp)
 4c0:	05412a83          	lw	s5,84(sp)
 4c4:	05812b03          	lw	s6,88(sp)
 4c8:	05c12b83          	lw	s7,92(sp)
 4cc:	06012c03          	lw	s8,96(sp)
 4d0:	06412c83          	lw	s9,100(sp)
 4d4:	06812d03          	lw	s10,104(sp)
 4d8:	06c12d83          	lw	s11,108(sp)
 4dc:	07012e03          	lw	t3,112(sp)
 4e0:	07412e83          	lw	t4,116(sp)
 4e4:	07812f03          	lw	t5,120(sp)
 4e8:	07c12f83          	lw	t6,124(sp)
 4ec:	11010113          	addi	sp,sp,272
 4f0:	30046073          	csrsi	mstatus,8
 4f4:	30200073          	mret

000004f8 <PASS>:
 4f8:	30047073          	csrci	mstatus,8
 4fc:	0ff0000f          	fence
 500:	00100e13          	li	t3,1
 504:	0ff0000f          	fence

00000508 <pass_ecall>:
 508:	00000073          	ecall
 50c:	ffdff06f          	j	508 <pass_ecall>

00000510 <FAIL>:
 510:	30047073          	csrci	mstatus,8
 514:	0ff0000f          	fence
 518:	fff00e13          	li	t3,-1
 51c:	0ff0000f          	fence

00000520 <fail_ecall>:
 520:	00000073          	ecall
 524:	ffdff06f          	j	520 <fail_ecall>

00000528 <handle_interrupt>:
 528:	0000006f          	j	528 <handle_interrupt>

0000052c <_init>:
 52c:	00008117          	auipc	sp,0x8
 530:	ad410113          	addi	sp,sp,-1324 # 8000 <_end_of_memory>
 534:	008000ef          	jal	53c <main>
 538:	0000006f          	j	538 <_init+0xc>

Disassembly of section .text.startup:

0000053c <main>:
 53c:	80c1af03          	lw	t5,-2036(gp) # 400c <ledg>
 540:	8101ae83          	lw	t4,-2032(gp) # 4010 <ledr>
 544:	8081ae03          	lw	t3,-2040(gp) # 4008 <hex0>
 548:	8041a503          	lw	a0,-2044(gp) # 4004 <hex1>
 54c:	8001a703          	lw	a4,-2048(gp) # 4000 <uart>
 550:	000088b7          	lui	a7,0x8
 554:	004c5837          	lui	a6,0x4c5
 558:	00088893          	mv	a7,a7
 55c:	06800313          	li	t1,104
 560:	ffff06b7          	lui	a3,0xffff0
 564:	b3f80813          	addi	a6,a6,-1217 # 4c4b3f <_end_of_memory+0x4bcb3f>
 568:	f01027f3          	csrr	a5,mtime
 56c:	00ff2023          	sw	a5,0(t5)
 570:	f01027f3          	csrr	a5,mtime
 574:	00fea023          	sw	a5,0(t4)
 578:	f01027f3          	csrr	a5,mtime
 57c:	00fe2023          	sw	a5,0(t3)
 580:	00030593          	mv	a1,t1
 584:	00088613          	mv	a2,a7
 588:	00472783          	lw	a5,4(a4)
 58c:	00160613          	addi	a2,a2,1
 590:	00f52023          	sw	a5,0(a0)
 594:	00472783          	lw	a5,4(a4)
 598:	00d7f7b3          	and	a5,a5,a3
 59c:	fe078ce3          	beqz	a5,594 <main+0x58>
 5a0:	00b72023          	sw	a1,0(a4)
 5a4:	00064583          	lbu	a1,0(a2)
 5a8:	fe0590e3          	bnez	a1,588 <main+0x4c>
 5ac:	f0102673          	csrr	a2,mtime
 5b0:	f01027f3          	csrr	a5,mtime
 5b4:	40c787b3          	sub	a5,a5,a2
 5b8:	fef87ce3          	bleu	a5,a6,5b0 <main+0x74>
 5bc:	fadff06f          	j	568 <main+0x2c>
